	.text
	.def	@feat.00;
	.scl	3;
	.type	0;
	.endef
	.globl	@feat.00
.set @feat.00, 0
	.intel_syntax noprefix
	.file	"dfufzl1b95meu31j0bltzjdey"
	.def	_ZN102_$LT$core..str..iter..CharIndices$u20$as$u20$core..iter..traits..double_ended..DoubleEndedIterator$GT$9next_back17h646e0e12f179fab4E;
	.scl	3;
	.type	32;
	.endef
	.section	.text,"xr",one_only,_ZN102_$LT$core..str..iter..CharIndices$u20$as$u20$core..iter..traits..double_ended..DoubleEndedIterator$GT$9next_back17h646e0e12f179fab4E
	.p2align	4, 0x90
_ZN102_$LT$core..str..iter..CharIndices$u20$as$u20$core..iter..traits..double_ended..DoubleEndedIterator$GT$9next_back17h646e0e12f179fab4E:
.Lfunc_begin0:
	.cv_func_id 0
	.cv_file	1 "/rustc/e9e6e2e444c30c23a9c878a88fbc3978c2acad95\\library\\core\\src\\str\\iter.rs" "5C60112C0399FDB5861DAFE4E06DB345D60FC7F3CCCECCC1B618478C814B1A5E" 3
	.cv_loc	0 1 221 0
.seh_proc _ZN102_$LT$core..str..iter..CharIndices$u20$as$u20$core..iter..traits..double_ended..DoubleEndedIterator$GT$9next_back17h646e0e12f179fab4E
	sub	rsp, 152
	.seh_stackalloc 152
	.seh_endprologue
	mov	qword ptr [rsp + 72], rcx
.Ltmp0:
	.cv_inline_site_id 1 within 0 inlined_at 1 222 0
	.cv_loc	1 1 134 0
	call	_ZN4core3str11validations23next_code_point_reverse17h2b09eacdea5aa5c8E
	mov	dword ptr [rsp + 120], eax
	mov	dword ptr [rsp + 124], edx
.Ltmp1:
	.cv_file	2 "/rustc/e9e6e2e444c30c23a9c878a88fbc3978c2acad95\\library\\core\\src\\option.rs" "B1DD07B2E16D10E84EC248AC75FE0A2C17C7BE974B8B7FB1F4D2768228E8D1EE" 3
	.cv_inline_site_id 2 within 1 inlined_at 1 134 0
	.cv_loc	2 2 1102 0
	mov	eax, dword ptr [rsp + 120]
	cmp	rax, 0
	jne	.LBB0_2
	.cv_loc	2 2 1104 0
	mov	rax, qword ptr [rsp + 72]
	mov	dword ptr [rsp + 100], 1114112
.Ltmp2:
	.cv_loc	0 1 222 0
	mov	rcx, rax
	add	rcx, 16
	mov	qword ptr [rsp + 104], rcx
	mov	qword ptr [rsp + 112], rax
	mov	rax, qword ptr [rsp + 104]
	mov	qword ptr [rsp + 128], rax
	mov	rax, qword ptr [rsp + 112]
	mov	qword ptr [rsp + 136], rax
.Ltmp3:
	.cv_loc	1 2 1104 0
	mov	rcx, qword ptr [rip + __unnamed_1]
	mov	eax, dword ptr [rip + __unnamed_1+8]
	mov	qword ptr [rsp + 80], rcx
	mov	dword ptr [rsp + 88], eax
	.cv_loc	1 2 1106 0
	jmp	.LBB0_3
.Ltmp4:
.LBB0_2:
	.cv_loc	2 2 1103 0
	mov	eax, dword ptr [rsp + 124]
	mov	dword ptr [rsp + 68], eax
.Ltmp5:
	.cv_file	3 "/rustc/e9e6e2e444c30c23a9c878a88fbc3978c2acad95\\library\\core\\src\\ub_checks.rs" "D05F09F03A7748F1475B6A5566A3AD8F1D69EC140C3F40CB177C11471673525C" 3
	.cv_inline_site_id 3 within 2 inlined_at 2 1103 0
	.cv_inline_site_id 4 within 3 inlined_at 1 134 0
	.cv_file	4 "/rustc/e9e6e2e444c30c23a9c878a88fbc3978c2acad95\\library\\core\\src\\char\\methods.rs" "8559431C61F33FCC8DA1A36D77E370E4680447B127B6A61C3C4D77ABCCF53B10" 3
	.cv_inline_site_id 5 within 4 inlined_at 4 231 0
	.cv_loc	5 3 74 0
	jmp	.LBB0_4
.Ltmp6:
.LBB0_3:
	.cv_loc	0 1 226 0
	mov	rax, qword ptr [rsp + 80]
	mov	edx, dword ptr [rsp + 88]
	add	rsp, 152
	ret
.LBB0_4:
	.cv_loc	5 3 75 0
	mov	ecx, dword ptr [rsp + 68]
.Ltmp7:
	call	_ZN4core4char7convert18from_u32_unchecked18precondition_check17hbad4979217a856c2E
.Ltmp8:
	.cv_loc	2 2 1103 0
	mov	rax, qword ptr [rsp + 72]
	mov	ecx, dword ptr [rsp + 68]
	mov	dword ptr [rsp + 100], ecx
.Ltmp9:
	.cv_loc	0 1 222 0
	mov	rcx, rax
	add	rcx, 16
	mov	qword ptr [rsp + 104], rcx
	mov	qword ptr [rsp + 112], rax
	mov	rax, qword ptr [rsp + 104]
	mov	qword ptr [rsp + 128], rax
	mov	rax, qword ptr [rsp + 112]
	mov	qword ptr [rsp + 136], rax
.Ltmp10:
	.cv_loc	1 2 1103 0
	mov	eax, dword ptr [rsp + 100]
	mov	dword ptr [rsp + 64], eax
.Ltmp11:
	.cv_inline_site_id 6 within 1 inlined_at 2 1103 0
	.cv_loc	6 1 223 0
	mov	rax, qword ptr [rsp + 104]
	mov	rax, qword ptr [rax]
	mov	qword ptr [rsp + 56], rax
	mov	rax, qword ptr [rsp + 112]
.Ltmp12:
	.cv_file	5 "/rustc/e9e6e2e444c30c23a9c878a88fbc3978c2acad95\\library\\core\\src\\slice\\iter\\macros.rs" "4E2BFBBCA721DAA62C56B1A873D53D67C6C21DE2CBF7A232B6742A30D5DEE8C1" 3
	.cv_inline_site_id 7 within 6 inlined_at 1 223 0
	.cv_loc	7 5 33 0
	mov	rcx, qword ptr [rax + 8]
	mov	qword ptr [rsp + 40], rcx
.Ltmp13:
	.cv_loc	7 5 57 0
	mov	rdx, qword ptr [rax]
	mov	qword ptr [rsp + 48], rdx
.Ltmp14:
	.cv_inline_site_id 8 within 7 inlined_at 5 57 0
	.cv_file	6 "/rustc/e9e6e2e444c30c23a9c878a88fbc3978c2acad95\\library\\core\\src\\ptr\\non_null.rs" "081A152A998B8D3528438028B0B9713BDF1658511AE4970A506DA46D1D89413E" 3
	.cv_inline_site_id 9 within 8 inlined_at 6 950 0
	.cv_loc	9 3 75 0
	call	_ZN4core3ptr9const_ptr33_$LT$impl$u20$$BP$const$u20$T$GT$7sub_ptr18precondition_check17h1b9b6d70841970c1E
	mov	rdx, qword ptr [rsp + 40]
	mov	r8, qword ptr [rsp + 48]
	mov	rcx, qword ptr [rsp + 56]
	mov	eax, dword ptr [rsp + 64]
.Ltmp15:
	.cv_file	7 "/rustc/e9e6e2e444c30c23a9c878a88fbc3978c2acad95\\library\\core\\src\\ptr\\const_ptr.rs" "2746734B92B2C4A40B7556F0437BEB4179CF245D3C6D4BAC453BB14E77250B1A" 3
	.cv_loc	9 7 884 0
	sub	rdx, r8
	mov	qword ptr [rsp + 144], rdx
.Ltmp16:
	.cv_loc	6 1 223 0
	add	rcx, qword ptr [rsp + 144]
.Ltmp17:
	.cv_loc	1 2 1103 0
	mov	qword ptr [rsp + 80], rcx
	mov	dword ptr [rsp + 88], eax
.Ltmp18:
	.cv_loc	1 2 1103 0
	jmp	.LBB0_3
.Ltmp19:
.Lfunc_end0:
	.seh_endproc

	.def	_ZN104_$LT$core..str..pattern..MultiCharEqSearcher$LT$C$GT$$u20$as$u20$core..str..pattern..ReverseSearcher$GT$9next_back17h9354b123993eb751E;
	.scl	3;
	.type	32;
	.endef
	.section	.text,"xr",one_only,_ZN104_$LT$core..str..pattern..MultiCharEqSearcher$LT$C$GT$$u20$as$u20$core..str..pattern..ReverseSearcher$GT$9next_back17h9354b123993eb751E
	.p2align	4, 0x90
_ZN104_$LT$core..str..pattern..MultiCharEqSearcher$LT$C$GT$$u20$as$u20$core..str..pattern..ReverseSearcher$GT$9next_back17h9354b123993eb751E:
.Lfunc_begin1:
	.cv_func_id 10
	.cv_file	8 "/rustc/e9e6e2e444c30c23a9c878a88fbc3978c2acad95\\library\\core\\src\\str\\pattern.rs" "AD7A6CDBF3A5C1679E5587E99D24642CCB5AA55B62057EBC75C25DF383D8BAEC" 3
	.cv_loc	10 8 690 0
.seh_proc _ZN104_$LT$core..str..pattern..MultiCharEqSearcher$LT$C$GT$$u20$as$u20$core..str..pattern..ReverseSearcher$GT$9next_back17h9354b123993eb751E
	sub	rsp, 152
	.seh_stackalloc 152
	.seh_endprologue
	mov	qword ptr [rsp + 104], rdx
	mov	qword ptr [rsp + 72], rcx
	mov	qword ptr [rsp + 80], rcx
.Ltmp20:
	.cv_inline_site_id 11 within 10 inlined_at 8 694 0
	.cv_loc	11 5 33 0
	mov	rcx, qword ptr [rdx + 24]
	mov	qword ptr [rsp + 88], rcx
.Ltmp21:
	.cv_loc	11 5 57 0
	mov	rdx, qword ptr [rdx + 16]
	mov	qword ptr [rsp + 96], rdx
.Ltmp22:
	.cv_inline_site_id 12 within 11 inlined_at 5 57 0
	.cv_inline_site_id 13 within 12 inlined_at 6 950 0
	.cv_loc	13 3 75 0
	call	_ZN4core3ptr9const_ptr33_$LT$impl$u20$$BP$const$u20$T$GT$7sub_ptr18precondition_check17h1b9b6d70841970c1E
	mov	rax, qword ptr [rsp + 88]
	mov	rdx, qword ptr [rsp + 96]
	mov	rcx, qword ptr [rsp + 104]
.Ltmp23:
	.cv_loc	13 7 884 0
	sub	rax, rdx
	mov	qword ptr [rsp + 144], rax
.Ltmp24:
	.cv_loc	11 5 143 0
	mov	rax, qword ptr [rsp + 144]
	mov	qword ptr [rsp + 112], rax
.Ltmp25:
	.cv_loc	10 8 695 0
	add	rcx, 16
	call	_ZN102_$LT$core..str..iter..CharIndices$u20$as$u20$core..iter..traits..double_ended..DoubleEndedIterator$GT$9next_back17h646e0e12f179fab4E
	mov	qword ptr [rsp + 120], rax
	mov	dword ptr [rsp + 128], edx
	mov	eax, 1
	xor	ecx, ecx
	cmp	dword ptr [rsp + 128], 1114112
	cmove	rax, rcx
	cmp	rax, 1
	jne	.LBB1_2
	mov	rax, qword ptr [rsp + 104]
	mov	rcx, qword ptr [rsp + 120]
	mov	qword ptr [rsp + 32], rcx
	mov	ecx, dword ptr [rsp + 128]
	mov	dword ptr [rsp + 60], ecx
.Ltmp26:
	.cv_inline_site_id 14 within 10 inlined_at 8 696 0
	.cv_loc	14 5 33 0
	mov	rcx, qword ptr [rax + 24]
	mov	qword ptr [rsp + 40], rcx
.Ltmp27:
	.cv_loc	14 5 57 0
	mov	rdx, qword ptr [rax + 16]
	mov	qword ptr [rsp + 48], rdx
.Ltmp28:
	.cv_inline_site_id 15 within 14 inlined_at 5 57 0
	.cv_inline_site_id 16 within 15 inlined_at 6 950 0
	.cv_loc	16 3 75 0
	call	_ZN4core3ptr9const_ptr33_$LT$impl$u20$$BP$const$u20$T$GT$7sub_ptr18precondition_check17h1b9b6d70841970c1E
	mov	r8, qword ptr [rsp + 40]
	mov	r9, qword ptr [rsp + 48]
	mov	rax, qword ptr [rsp + 112]
	mov	rcx, qword ptr [rsp + 104]
	mov	edx, dword ptr [rsp + 60]
.Ltmp29:
	.cv_loc	16 7 884 0
	sub	r8, r9
	mov	qword ptr [rsp + 136], r8
.Ltmp30:
	.cv_loc	10 8 697 0
	sub	rax, qword ptr [rsp + 136]
	mov	qword ptr [rsp + 64], rax
.Ltmp31:
	.cv_loc	10 8 698 0
	add	rcx, 40
	call	_ZN53_$LT$F$u20$as$u20$core..str..pattern..MultiCharEq$GT$7matches17h271ac01a27f0d12dE
	test	al, 1
	jne	.LBB1_4
	jmp	.LBB1_3
.Ltmp32:
.LBB1_2:
	.cv_loc	10 8 704 0
	mov	rax, qword ptr [rsp + 72]
	mov	qword ptr [rax], 2
.Ltmp33:
	.cv_loc	10 8 705 0
	jmp	.LBB1_6
.LBB1_3:
	.cv_loc	10 8 701 0
	mov	rax, qword ptr [rsp + 72]
	mov	rdx, qword ptr [rsp + 32]
	mov	r8, qword ptr [rsp + 64]
.Ltmp34:
	mov	rcx, rdx
	add	rcx, r8
	mov	qword ptr [rax + 8], rdx
	mov	qword ptr [rax + 16], rcx
	mov	qword ptr [rax], 1
	jmp	.LBB1_5
.LBB1_4:
	.cv_loc	10 8 699 0
	mov	rax, qword ptr [rsp + 72]
	mov	rdx, qword ptr [rsp + 32]
	mov	r8, qword ptr [rsp + 64]
	mov	rcx, rdx
	add	rcx, r8
	mov	qword ptr [rax + 8], rdx
	mov	qword ptr [rax + 16], rcx
	mov	qword ptr [rax], 0
.Ltmp35:
.LBB1_5:
	.cv_loc	10 8 705 0
	jmp	.LBB1_6
.LBB1_6:
	mov	rax, qword ptr [rsp + 80]
	add	rsp, 152
	ret
.Ltmp36:
.Lfunc_end1:
	.seh_endproc

	.def	_ZN106_$LT$core..slice..iter..Iter$LT$T$GT$$u20$as$u20$core..iter..traits..double_ended..DoubleEndedIterator$GT$9next_back17ha601cc7ebcefb9c8E;
	.scl	3;
	.type	32;
	.endef
	.section	.text,"xr",one_only,_ZN106_$LT$core..slice..iter..Iter$LT$T$GT$$u20$as$u20$core..iter..traits..double_ended..DoubleEndedIterator$GT$9next_back17ha601cc7ebcefb9c8E
	.p2align	4, 0x90
_ZN106_$LT$core..slice..iter..Iter$LT$T$GT$$u20$as$u20$core..iter..traits..double_ended..DoubleEndedIterator$GT$9next_back17ha601cc7ebcefb9c8E:
.Lfunc_begin2:
	.cv_func_id 17
	.cv_loc	17 5 392 0
.seh_proc _ZN106_$LT$core..slice..iter..Iter$LT$T$GT$$u20$as$u20$core..iter..traits..double_ended..DoubleEndedIterator$GT$9next_back17ha601cc7ebcefb9c8E
	sub	rsp, 72
	.seh_stackalloc 72
	.seh_endprologue
	mov	qword ptr [rsp + 40], rcx
	.cv_loc	17 5 33 0
	mov	rax, qword ptr [rsp + 40]
.Ltmp37:
	mov	rcx, qword ptr [rax + 8]
	mov	qword ptr [rsp + 64], rcx
.Ltmp38:
	.cv_inline_site_id 18 within 17 inlined_at 5 44 0
	.cv_loc	18 6 1796 0
	mov	rax, qword ptr [rax]
	cmp	rax, qword ptr [rsp + 64]
	sete	al
	and	al, 1
	mov	byte ptr [rsp + 63], al
.Ltmp39:
	.cv_loc	17 5 25 0
	test	byte ptr [rsp + 63], 1
	jne	.LBB2_4
.Ltmp40:
	.cv_loc	17 5 401 0
	mov	rcx, qword ptr [rsp + 40]
	call	_ZN4core5slice4iter13Iter$LT$T$GT$19next_back_unchecked17hadd6c9bd97dd23a3E
	mov	qword ptr [rsp + 48], rax
	.cv_loc	17 5 398 0
	jmp	.LBB2_5
.LBB2_4:
	.cv_loc	17 5 399 0
	mov	qword ptr [rsp + 48], 0
.LBB2_5:
	.cv_loc	17 5 404 0
	mov	rax, qword ptr [rsp + 48]
	add	rsp, 72
	ret
.Ltmp41:
.Lfunc_end2:
	.seh_endproc

	.def	_ZN106_$LT$core..str..pattern..CharPredicateSearcher$LT$F$GT$$u20$as$u20$core..str..pattern..ReverseSearcher$GT$16next_reject_back17hc90f71ae8b6c5b39E;
	.scl	3;
	.type	32;
	.endef
	.section	.text,"xr",one_only,_ZN106_$LT$core..str..pattern..CharPredicateSearcher$LT$F$GT$$u20$as$u20$core..str..pattern..ReverseSearcher$GT$16next_reject_back17hc90f71ae8b6c5b39E
	.p2align	4, 0x90
_ZN106_$LT$core..str..pattern..CharPredicateSearcher$LT$F$GT$$u20$as$u20$core..str..pattern..ReverseSearcher$GT$16next_reject_back17hc90f71ae8b6c5b39E:
.Lfunc_begin3:
	.cv_func_id 19
	.cv_loc	19 8 783 0
.seh_proc _ZN106_$LT$core..str..pattern..CharPredicateSearcher$LT$F$GT$$u20$as$u20$core..str..pattern..ReverseSearcher$GT$16next_reject_back17hc90f71ae8b6c5b39E
	sub	rsp, 88
	.seh_stackalloc 88
	.seh_endprologue
	mov	qword ptr [rsp + 40], rdx
	mov	qword ptr [rsp + 48], rcx
	mov	qword ptr [rsp + 56], rcx
.LBB3_1:
	.cv_inline_site_id 20 within 19 inlined_at 8 784 0
	.cv_loc	20 8 316 0
	mov	rdx, qword ptr [rsp + 40]
	lea	rcx, [rsp + 64]
.Ltmp42:
	call	_ZN104_$LT$core..str..pattern..MultiCharEqSearcher$LT$C$GT$$u20$as$u20$core..str..pattern..ReverseSearcher$GT$9next_back17h9354b123993eb751E
	mov	rax, qword ptr [rsp + 64]
	mov	qword ptr [rsp + 32], rax
	test	rax, rax
	je	.LBB3_5
	jmp	.LBB3_7
.LBB3_7:
	mov	rax, qword ptr [rsp + 32]
	sub	rax, 1
	je	.LBB3_3
	jmp	.LBB3_8
.LBB3_8:
	jmp	.LBB3_4
	.cv_loc	20 8 314 0
	ud2
.LBB3_3:
	.cv_loc	20 8 317 0
	mov	rax, qword ptr [rsp + 48]
	mov	rdx, qword ptr [rsp + 72]
	mov	rcx, qword ptr [rsp + 80]
.Ltmp43:
	.cv_loc	20 8 317 0
	mov	qword ptr [rax + 8], rdx
	mov	qword ptr [rax + 16], rcx
	mov	qword ptr [rax], 1
.Ltmp44:
	.cv_file	9 "C:\\Users\\kade\\code\\switcheroo\\src\\main.rs" "F244A29D630FB28042E63ED3DB10268334DBDDEDB5C3D6D15042C854B6682BBE" 3
	.cv_loc	20 9 1 0
	jmp	.LBB3_6
.LBB3_4:
	.cv_loc	20 8 318 0
	mov	rax, qword ptr [rsp + 48]
	mov	qword ptr [rax], 0
	jmp	.LBB3_6
.LBB3_5:
	.cv_loc	20 9 1 0
	jmp	.LBB3_1
.Ltmp45:
.LBB3_6:
	.cv_loc	19 8 785 0
	mov	rax, qword ptr [rsp + 56]
	add	rsp, 88
	ret
.Ltmp46:
.Lfunc_end3:
	.seh_endproc

	.def	_ZN3std2io5error14repr_bitpacked11decode_repr17h2bd03e50a5673b9eE;
	.scl	3;
	.type	32;
	.endef
	.section	.text,"xr",one_only,_ZN3std2io5error14repr_bitpacked11decode_repr17h2bd03e50a5673b9eE
	.p2align	4, 0x90
_ZN3std2io5error14repr_bitpacked11decode_repr17h2bd03e50a5673b9eE:
.Lfunc_begin4:
	.cv_func_id 21
	.cv_file	10 "/rustc/e9e6e2e444c30c23a9c878a88fbc3978c2acad95\\library\\std\\src\\io\\error\\repr_bitpacked.rs" "EFFF4068A13FD46A06DC5382E8047571E1CF9BBACB2836F2A88F92082BB14378" 3
	.cv_loc	21 10 250 0
.seh_proc _ZN3std2io5error14repr_bitpacked11decode_repr17h2bd03e50a5673b9eE
	.seh_handler __CxxFrameHandler3, @unwind, @except
	push	rbp
	.seh_pushreg rbp
	sub	rsp, 112
	.seh_stackalloc 112
	lea	rbp, [rsp + 112]
	.seh_setframe rbp, 112
	.seh_endprologue
	mov	qword ptr [rbp - 8], -2
	mov	qword ptr [rbp - 64], rdx
	mov	qword ptr [rbp - 56], rcx
	mov	qword ptr [rbp - 48], rcx
.Ltmp53:
	.cv_loc	21 10 254 0
	mov	byte ptr [rbp - 17], 1
.Ltmp54:
	.cv_file	11 "/rustc/e9e6e2e444c30c23a9c878a88fbc3978c2acad95\\library\\core\\src\\ptr\\mut_ptr.rs" "970CD9D03765FA6C8BC4258776CF2DE375169491084D2DA00E29E584EFF17168" 3
	.cv_inline_site_id 22 within 21 inlined_at 10 254 0
	.cv_loc	22 11 217 0
	mov	qword ptr [rbp - 32], rdx
.Ltmp55:
	.cv_loc	21 10 255 0
	mov	rax, qword ptr [rbp - 32]
	and	eax, 3
	mov	qword ptr [rbp - 40], rax
	sub	rax, 3
	ja	.LBB4_1
	mov	rax, qword ptr [rbp - 40]
	lea	rcx, [rip + .LJTI4_0]
	movsxd	rax, dword ptr [rcx + 4*rax]
	add	rax, rcx
.Ltmp56:
	jmp	rax
.LBB4_1:
	.cv_loc	21 10 284 0
.Ltmp51:
	lea	rcx, [rip + __unnamed_2]
	lea	r8, [rip + __unnamed_3]
	mov	edx, 40
	call	_ZN4core9panicking5panic17h98448623be179d24E
.Ltmp52:
	jmp	.LBB4_13
.LBB4_2:
	.cv_loc	21 10 257 0
	mov	rax, qword ptr [rbp - 56]
	mov	rcx, qword ptr [rbp - 32]
	sar	rcx, 32
.Ltmp57:
	.cv_loc	21 10 258 0
	mov	dword ptr [rax + 4], ecx
	mov	byte ptr [rax], 0
.Ltmp58:
	.cv_loc	21 10 287 0
	jmp	.LBB4_6
.LBB4_3:
.Ltmp59:
	.cv_loc	21 10 261 0
	mov	ecx, dword ptr [rbp - 28]
	.cv_loc	21 10 262 0
.Ltmp49:
.Ltmp60:
	call	_ZN3std2io5error14repr_bitpacked14kind_from_prim17h2d8accdbaa840cf3E
.Ltmp50:
	mov	byte ptr [rbp - 65], al
	jmp	.LBB4_8
.Ltmp61:
.LBB4_4:
	.cv_loc	21 10 274 0
	mov	rax, qword ptr [rbp - 56]
	mov	rcx, qword ptr [rbp - 64]
	mov	qword ptr [rax + 8], rcx
	mov	byte ptr [rax], 2
.Ltmp62:
	.cv_loc	21 10 287 0
	jmp	.LBB4_6
.LBB4_5:
	.cv_inline_site_id 23 within 21 inlined_at 10 279 0
	.cv_inline_site_id 24 within 23 inlined_at 11 1422 0
	.cv_inline_site_id 25 within 24 inlined_at 11 1403 0
	.cv_loc	25 11 615 0
	mov	rax, qword ptr [rbp - 64]
.Ltmp63:
	dec	rax
	mov	qword ptr [rbp - 16], rax
	mov	rcx, qword ptr [rbp - 16]
.Ltmp64:
	.cv_loc	21 10 280 0
	mov	byte ptr [rbp - 17], 0
.Ltmp47:
	call	_ZN78_$LT$std..io..error..repr_bitpacked..Repr$u20$as$u20$core..ops..drop..Drop$GT$4drop28_$u7b$$u7b$closure$u7d$$u7d$17hebe88c639d4ba5ddE
.Ltmp48:
	mov	qword ptr [rbp - 80], rax
	jmp	.LBB4_12
.Ltmp65:
.LBB4_6:
	.cv_loc	21 10 287 0
	jmp	.LBB4_11
.LBB4_8:
	.cv_loc	21 10 262 0
	mov	al, byte ptr [rbp - 65]
.Ltmp66:
	mov	byte ptr [rbp - 18], al
.Ltmp67:
	.cv_inline_site_id 26 within 21 inlined_at 10 262 0
	.cv_loc	26 2 1006 0
	cmp	byte ptr [rbp - 18], 41
	sete	al
	test	al, 1
	jne	.LBB4_9
	jmp	.LBB4_10
.LBB4_9:
.Ltmp68:
	.cv_inline_site_id 27 within 26 inlined_at 2 1008 0
	.cv_inline_site_id 28 within 27 inlined_at 10 270 0
	.cv_loc	28 3 75 0
	call	_ZN4core4hint21unreachable_unchecked18precondition_check17h1cfe469db0b0df09E
.Ltmp69:
	.cv_loc	26 2 1006 0
	ud2
.LBB4_10:
	.cv_loc	26 2 1007 0
	mov	rax, qword ptr [rbp - 56]
	mov	cl, byte ptr [rbp - 18]
.Ltmp70:
	.cv_loc	21 10 272 0
	mov	byte ptr [rax + 1], cl
	mov	byte ptr [rax], 1
.Ltmp71:
	.cv_loc	21 10 287 0
	jmp	.LBB4_6
.LBB4_11:
	mov	rax, qword ptr [rbp - 48]
	add	rsp, 112
	pop	rbp
	ret
.LBB4_12:
	.cv_loc	21 10 280 0
	mov	rax, qword ptr [rbp - 56]
	mov	rcx, qword ptr [rbp - 80]
.Ltmp72:
	mov	qword ptr [rax + 8], rcx
	mov	byte ptr [rax], 3
.Ltmp73:
	.cv_loc	21 10 287 0
	jmp	.LBB4_11
.LBB4_13:
	ud2
	.seh_handlerdata
	.long	($cppxdata$_ZN3std2io5error14repr_bitpacked11decode_repr17h2bd03e50a5673b9eE)@IMGREL
	.section	.text,"xr",one_only,_ZN3std2io5error14repr_bitpacked11decode_repr17h2bd03e50a5673b9eE
	.seh_endproc
	.def	"?dtor$7@?0?_ZN3std2io5error14repr_bitpacked11decode_repr17h2bd03e50a5673b9eE@4HA";
	.scl	3;
	.type	32;
	.endef
	.p2align	4, 0x90
"?dtor$7@?0?_ZN3std2io5error14repr_bitpacked11decode_repr17h2bd03e50a5673b9eE@4HA":
.seh_proc "?dtor$7@?0?_ZN3std2io5error14repr_bitpacked11decode_repr17h2bd03e50a5673b9eE@4HA"
.LBB4_7:
	mov	qword ptr [rsp + 16], rdx
	push	rbp
	.seh_pushreg rbp
	sub	rsp, 32
	.seh_stackalloc 32
	lea	rbp, [rdx + 112]
	.seh_endprologue
	test	byte ptr [rbp - 17], 1
	jne	.LBB4_15
	jmp	.LBB4_14
.LBB4_14:
	.cv_loc	21 10 250 0
	add	rsp, 32
	pop	rbp
	ret
.LBB4_15:
	.cv_loc	21 10 287 0
	jmp	.LBB4_14
.Ltmp74:
.Lfunc_end4:
	.section	.rdata,"dr",associative,_ZN3std2io5error14repr_bitpacked11decode_repr17h2bd03e50a5673b9eE
	.p2align	2, 0x0
.LJTI4_0:
	.long	.LBB4_4-.LJTI4_0
	.long	.LBB4_5-.LJTI4_0
	.long	.LBB4_2-.LJTI4_0
	.long	.LBB4_3-.LJTI4_0
	.seh_handlerdata
	.section	.text,"xr",one_only,_ZN3std2io5error14repr_bitpacked11decode_repr17h2bd03e50a5673b9eE
	.seh_endproc
	.section	.xdata,"dr",associative,_ZN3std2io5error14repr_bitpacked11decode_repr17h2bd03e50a5673b9eE
	.p2align	2, 0x0
$cppxdata$_ZN3std2io5error14repr_bitpacked11decode_repr17h2bd03e50a5673b9eE:
	.long	429065506
	.long	1
	.long	($stateUnwindMap$_ZN3std2io5error14repr_bitpacked11decode_repr17h2bd03e50a5673b9eE)@IMGREL
	.long	0
	.long	0
	.long	3
	.long	($ip2state$_ZN3std2io5error14repr_bitpacked11decode_repr17h2bd03e50a5673b9eE)@IMGREL
	.long	104
	.long	0
	.long	1
$stateUnwindMap$_ZN3std2io5error14repr_bitpacked11decode_repr17h2bd03e50a5673b9eE:
	.long	-1
	.long	"?dtor$7@?0?_ZN3std2io5error14repr_bitpacked11decode_repr17h2bd03e50a5673b9eE@4HA"@IMGREL
$ip2state$_ZN3std2io5error14repr_bitpacked11decode_repr17h2bd03e50a5673b9eE:
	.long	.Lfunc_begin4@IMGREL
	.long	-1
	.long	.Ltmp51@IMGREL+1
	.long	0
	.long	.Ltmp48@IMGREL+1
	.long	-1
	.section	.text,"xr",one_only,_ZN3std2io5error14repr_bitpacked11decode_repr17h2bd03e50a5673b9eE

	.def	_ZN3std2io5error14repr_bitpacked14kind_from_prim17h2d8accdbaa840cf3E;
	.scl	3;
	.type	32;
	.endef
	.section	.text,"xr",one_only,_ZN3std2io5error14repr_bitpacked14kind_from_prim17h2d8accdbaa840cf3E
	.p2align	4, 0x90
_ZN3std2io5error14repr_bitpacked14kind_from_prim17h2d8accdbaa840cf3E:
.Lfunc_begin5:
	.cv_func_id 29
	.cv_loc	29 10 293 0
.seh_proc _ZN3std2io5error14repr_bitpacked14kind_from_prim17h2d8accdbaa840cf3E
	push	rax
	.seh_stackalloc 8
	.seh_endprologue
	mov	dword ptr [rsp], ecx
.Ltmp75:
	.cv_loc	29 10 301 0
	cmp	dword ptr [rsp], 0
	jne	.LBB5_2
.Ltmp76:
	.cv_loc	29 10 301 0
	mov	byte ptr [rsp + 7], 0
.Ltmp77:
	.cv_loc	29 10 301 0
	jmp	.LBB5_3
.LBB5_2:
	cmp	dword ptr [rsp], 1
	je	.LBB5_4
	jmp	.LBB5_5
.LBB5_3:
	.cv_loc	29 10 349 0
	mov	al, byte ptr [rsp + 7]
	pop	rcx
	ret
.LBB5_4:
.Ltmp78:
	.cv_loc	29 10 301 0
	mov	byte ptr [rsp + 7], 1
.Ltmp79:
	.cv_loc	29 10 301 0
	jmp	.LBB5_3
.LBB5_5:
	cmp	dword ptr [rsp], 2
	jne	.LBB5_7
.Ltmp80:
	.cv_loc	29 10 301 0
	mov	byte ptr [rsp + 7], 2
.Ltmp81:
	.cv_loc	29 10 301 0
	jmp	.LBB5_3
.LBB5_7:
	cmp	dword ptr [rsp], 3
	jne	.LBB5_9
.Ltmp82:
	.cv_loc	29 10 301 0
	mov	byte ptr [rsp + 7], 3
.Ltmp83:
	.cv_loc	29 10 301 0
	jmp	.LBB5_3
.LBB5_9:
	cmp	dword ptr [rsp], 4
	jne	.LBB5_11
.Ltmp84:
	.cv_loc	29 10 301 0
	mov	byte ptr [rsp + 7], 4
.Ltmp85:
	.cv_loc	29 10 301 0
	jmp	.LBB5_3
.LBB5_11:
	cmp	dword ptr [rsp], 5
	jne	.LBB5_13
.Ltmp86:
	.cv_loc	29 10 301 0
	mov	byte ptr [rsp + 7], 5
.Ltmp87:
	.cv_loc	29 10 301 0
	jmp	.LBB5_3
.LBB5_13:
	cmp	dword ptr [rsp], 6
	jne	.LBB5_15
.Ltmp88:
	.cv_loc	29 10 301 0
	mov	byte ptr [rsp + 7], 6
.Ltmp89:
	.cv_loc	29 10 301 0
	jmp	.LBB5_3
.LBB5_15:
	cmp	dword ptr [rsp], 7
	jne	.LBB5_17
.Ltmp90:
	.cv_loc	29 10 301 0
	mov	byte ptr [rsp + 7], 7
.Ltmp91:
	.cv_loc	29 10 301 0
	jmp	.LBB5_3
.LBB5_17:
	cmp	dword ptr [rsp], 8
	jne	.LBB5_19
.Ltmp92:
	.cv_loc	29 10 301 0
	mov	byte ptr [rsp + 7], 8
.Ltmp93:
	.cv_loc	29 10 301 0
	jmp	.LBB5_3
.LBB5_19:
	cmp	dword ptr [rsp], 9
	jne	.LBB5_21
.Ltmp94:
	.cv_loc	29 10 301 0
	mov	byte ptr [rsp + 7], 9
.Ltmp95:
	.cv_loc	29 10 301 0
	jmp	.LBB5_3
.LBB5_21:
	cmp	dword ptr [rsp], 10
	jne	.LBB5_23
.Ltmp96:
	.cv_loc	29 10 301 0
	mov	byte ptr [rsp + 7], 10
.Ltmp97:
	.cv_loc	29 10 301 0
	jmp	.LBB5_3
.LBB5_23:
	cmp	dword ptr [rsp], 11
	jne	.LBB5_25
.Ltmp98:
	.cv_loc	29 10 301 0
	mov	byte ptr [rsp + 7], 11
.Ltmp99:
	.cv_loc	29 10 301 0
	jmp	.LBB5_3
.LBB5_25:
	cmp	dword ptr [rsp], 12
	jne	.LBB5_27
.Ltmp100:
	.cv_loc	29 10 301 0
	mov	byte ptr [rsp + 7], 12
.Ltmp101:
	.cv_loc	29 10 301 0
	jmp	.LBB5_3
.LBB5_27:
	cmp	dword ptr [rsp], 13
	jne	.LBB5_29
.Ltmp102:
	.cv_loc	29 10 301 0
	mov	byte ptr [rsp + 7], 13
.Ltmp103:
	.cv_loc	29 10 301 0
	jmp	.LBB5_3
.LBB5_29:
	cmp	dword ptr [rsp], 14
	jne	.LBB5_31
.Ltmp104:
	.cv_loc	29 10 301 0
	mov	byte ptr [rsp + 7], 14
.Ltmp105:
	.cv_loc	29 10 301 0
	jmp	.LBB5_3
.LBB5_31:
	cmp	dword ptr [rsp], 15
	jne	.LBB5_33
.Ltmp106:
	.cv_loc	29 10 301 0
	mov	byte ptr [rsp + 7], 15
.Ltmp107:
	.cv_loc	29 10 301 0
	jmp	.LBB5_3
.LBB5_33:
	cmp	dword ptr [rsp], 16
	jne	.LBB5_35
.Ltmp108:
	.cv_loc	29 10 301 0
	mov	byte ptr [rsp + 7], 16
.Ltmp109:
	.cv_loc	29 10 301 0
	jmp	.LBB5_3
.LBB5_35:
	cmp	dword ptr [rsp], 17
	jne	.LBB5_37
.Ltmp110:
	.cv_loc	29 10 301 0
	mov	byte ptr [rsp + 7], 17
.Ltmp111:
	.cv_loc	29 10 301 0
	jmp	.LBB5_3
.LBB5_37:
	cmp	dword ptr [rsp], 18
	jne	.LBB5_39
.Ltmp112:
	.cv_loc	29 10 301 0
	mov	byte ptr [rsp + 7], 18
.Ltmp113:
	.cv_loc	29 10 301 0
	jmp	.LBB5_3
.LBB5_39:
	cmp	dword ptr [rsp], 19
	jne	.LBB5_41
.Ltmp114:
	.cv_loc	29 10 301 0
	mov	byte ptr [rsp + 7], 19
.Ltmp115:
	.cv_loc	29 10 301 0
	jmp	.LBB5_3
.LBB5_41:
	cmp	dword ptr [rsp], 20
	jne	.LBB5_43
.Ltmp116:
	.cv_loc	29 10 301 0
	mov	byte ptr [rsp + 7], 20
.Ltmp117:
	.cv_loc	29 10 301 0
	jmp	.LBB5_3
.LBB5_43:
	cmp	dword ptr [rsp], 21
	jne	.LBB5_45
.Ltmp118:
	.cv_loc	29 10 301 0
	mov	byte ptr [rsp + 7], 21
.Ltmp119:
	.cv_loc	29 10 301 0
	jmp	.LBB5_3
.LBB5_45:
	cmp	dword ptr [rsp], 22
	jne	.LBB5_47
.Ltmp120:
	.cv_loc	29 10 301 0
	mov	byte ptr [rsp + 7], 22
.Ltmp121:
	.cv_loc	29 10 301 0
	jmp	.LBB5_3
.LBB5_47:
	cmp	dword ptr [rsp], 23
	jne	.LBB5_49
.Ltmp122:
	.cv_loc	29 10 301 0
	mov	byte ptr [rsp + 7], 23
.Ltmp123:
	.cv_loc	29 10 301 0
	jmp	.LBB5_3
.LBB5_49:
	cmp	dword ptr [rsp], 24
	jne	.LBB5_51
.Ltmp124:
	.cv_loc	29 10 301 0
	mov	byte ptr [rsp + 7], 24
.Ltmp125:
	.cv_loc	29 10 301 0
	jmp	.LBB5_3
.LBB5_51:
	cmp	dword ptr [rsp], 25
	jne	.LBB5_53
.Ltmp126:
	.cv_loc	29 10 301 0
	mov	byte ptr [rsp + 7], 25
.Ltmp127:
	.cv_loc	29 10 301 0
	jmp	.LBB5_3
.LBB5_53:
	cmp	dword ptr [rsp], 26
	jne	.LBB5_55
.Ltmp128:
	.cv_loc	29 10 301 0
	mov	byte ptr [rsp + 7], 26
.Ltmp129:
	.cv_loc	29 10 301 0
	jmp	.LBB5_3
.LBB5_55:
	cmp	dword ptr [rsp], 27
	jne	.LBB5_57
.Ltmp130:
	.cv_loc	29 10 301 0
	mov	byte ptr [rsp + 7], 27
.Ltmp131:
	.cv_loc	29 10 301 0
	jmp	.LBB5_3
.LBB5_57:
	cmp	dword ptr [rsp], 28
	jne	.LBB5_59
.Ltmp132:
	.cv_loc	29 10 301 0
	mov	byte ptr [rsp + 7], 28
.Ltmp133:
	.cv_loc	29 10 301 0
	jmp	.LBB5_3
.LBB5_59:
	cmp	dword ptr [rsp], 29
	jne	.LBB5_61
.Ltmp134:
	.cv_loc	29 10 301 0
	mov	byte ptr [rsp + 7], 29
.Ltmp135:
	.cv_loc	29 10 301 0
	jmp	.LBB5_3
.LBB5_61:
	cmp	dword ptr [rsp], 30
	jne	.LBB5_63
.Ltmp136:
	.cv_loc	29 10 301 0
	mov	byte ptr [rsp + 7], 30
.Ltmp137:
	.cv_loc	29 10 301 0
	jmp	.LBB5_3
.LBB5_63:
	cmp	dword ptr [rsp], 31
	jne	.LBB5_65
.Ltmp138:
	.cv_loc	29 10 301 0
	mov	byte ptr [rsp + 7], 31
.Ltmp139:
	.cv_loc	29 10 301 0
	jmp	.LBB5_3
.LBB5_65:
	cmp	dword ptr [rsp], 32
	jne	.LBB5_67
.Ltmp140:
	.cv_loc	29 10 301 0
	mov	byte ptr [rsp + 7], 32
.Ltmp141:
	.cv_loc	29 10 301 0
	jmp	.LBB5_3
.LBB5_67:
	cmp	dword ptr [rsp], 33
	jne	.LBB5_69
.Ltmp142:
	.cv_loc	29 10 301 0
	mov	byte ptr [rsp + 7], 33
.Ltmp143:
	.cv_loc	29 10 301 0
	jmp	.LBB5_3
.LBB5_69:
	cmp	dword ptr [rsp], 34
	jne	.LBB5_71
.Ltmp144:
	.cv_loc	29 10 301 0
	mov	byte ptr [rsp + 7], 34
.Ltmp145:
	.cv_loc	29 10 301 0
	jmp	.LBB5_3
.LBB5_71:
	cmp	dword ptr [rsp], 35
	jne	.LBB5_73
.Ltmp146:
	.cv_loc	29 10 301 0
	mov	byte ptr [rsp + 7], 35
.Ltmp147:
	.cv_loc	29 10 301 0
	jmp	.LBB5_3
.LBB5_73:
	cmp	dword ptr [rsp], 39
	jne	.LBB5_75
.Ltmp148:
	.cv_loc	29 10 301 0
	mov	byte ptr [rsp + 7], 39
.Ltmp149:
	.cv_loc	29 10 301 0
	jmp	.LBB5_3
.LBB5_75:
	cmp	dword ptr [rsp], 37
	jne	.LBB5_77
.Ltmp150:
	.cv_loc	29 10 301 0
	mov	byte ptr [rsp + 7], 37
.Ltmp151:
	.cv_loc	29 10 301 0
	jmp	.LBB5_3
.LBB5_77:
	cmp	dword ptr [rsp], 36
	jne	.LBB5_79
.Ltmp152:
	.cv_loc	29 10 301 0
	mov	byte ptr [rsp + 7], 36
.Ltmp153:
	.cv_loc	29 10 301 0
	jmp	.LBB5_3
.LBB5_79:
	cmp	dword ptr [rsp], 38
	jne	.LBB5_81
.Ltmp154:
	.cv_loc	29 10 301 0
	mov	byte ptr [rsp + 7], 38
.Ltmp155:
	.cv_loc	29 10 301 0
	jmp	.LBB5_3
.LBB5_81:
	cmp	dword ptr [rsp], 40
	jne	.LBB5_83
.Ltmp156:
	.cv_loc	29 10 301 0
	mov	byte ptr [rsp + 7], 40
.Ltmp157:
	.cv_loc	29 10 301 0
	jmp	.LBB5_3
.LBB5_83:
	.cv_loc	29 10 302 0
	mov	byte ptr [rsp + 7], 41
	jmp	.LBB5_3
.Ltmp158:
.Lfunc_end5:
	.seh_endproc

	.def	_ZN3std2rt10lang_start17h09fc778af1c58fa4E;
	.scl	2;
	.type	32;
	.endef
	.section	.text,"xr",one_only,_ZN3std2rt10lang_start17h09fc778af1c58fa4E
	.globl	_ZN3std2rt10lang_start17h09fc778af1c58fa4E
	.p2align	4, 0x90
_ZN3std2rt10lang_start17h09fc778af1c58fa4E:
.Lfunc_begin6:
	.cv_func_id 30
	.cv_file	12 "/rustc/e9e6e2e444c30c23a9c878a88fbc3978c2acad95\\library\\std\\src\\rt.rs" "12015E18D43B6C0260D4886658EE3A604FBEE57CE49EA0B8E685A997533FF79E" 3
	.cv_loc	30 12 152 0
.seh_proc _ZN3std2rt10lang_start17h09fc778af1c58fa4E
	sub	rsp, 56
	.seh_stackalloc 56
	.seh_endprologue
	mov	al, r9b
	mov	r9, r8
	mov	r8, rdx
.Ltmp159:
	.cv_loc	30 12 159 0
	mov	qword ptr [rsp + 48], rcx
	.cv_loc	30 12 158 0
	lea	rcx, [rsp + 48]
	lea	rdx, [rip + __unnamed_4]
	mov	byte ptr [rsp + 32], al
	call	_ZN3std2rt19lang_start_internal17hd83ad017e0d7938cE
	mov	qword ptr [rsp + 40], rax
	mov	rax, qword ptr [rsp + 40]
	.cv_loc	30 12 165 0
	add	rsp, 56
	ret
.Ltmp160:
.Lfunc_end6:
	.seh_endproc

	.def	_ZN3std2rt10lang_start28_$u7b$$u7b$closure$u7d$$u7d$17ha1ef829de41fd0f7E;
	.scl	3;
	.type	32;
	.endef
	.section	.text,"xr",one_only,_ZN3std2rt10lang_start28_$u7b$$u7b$closure$u7d$$u7d$17ha1ef829de41fd0f7E
	.p2align	4, 0x90
_ZN3std2rt10lang_start28_$u7b$$u7b$closure$u7d$$u7d$17ha1ef829de41fd0f7E:
.Lfunc_begin7:
	.cv_func_id 31
	.cv_loc	31 12 159 0
.seh_proc _ZN3std2rt10lang_start28_$u7b$$u7b$closure$u7d$$u7d$17ha1ef829de41fd0f7E
	sub	rsp, 40
	.seh_stackalloc 40
	.seh_endprologue
.Ltmp161:
	mov	rcx, qword ptr [rcx]
	call	_ZN3std3sys9backtrace28__rust_begin_short_backtrace17h657cc09c0d876c88E
	call	_ZN54_$LT$$LP$$RP$$u20$as$u20$std..process..Termination$GT$6report17hc2e8676efd37d04bE
	mov	dword ptr [rsp + 36], eax
.Ltmp162:
	.cv_file	13 "/rustc/e9e6e2e444c30c23a9c878a88fbc3978c2acad95\\library\\std\\src\\sys\\pal\\windows\\process.rs" "477DC9885D3CA8B26FBF91E6D6F52B3300B11E68577F69E862B9C3C46D7671B7" 3
	.cv_inline_site_id 32 within 31 inlined_at 12 159 0
	.cv_file	14 "/rustc/e9e6e2e444c30c23a9c878a88fbc3978c2acad95\\library\\std\\src\\process.rs" "9EC7F3313600EE8B3DE0761C0C8516D82274596F5A2E8147F182BF4BCB14C968" 3
	.cv_inline_site_id 33 within 32 inlined_at 14 2068 0
	.cv_loc	33 13 766 0
	mov	eax, dword ptr [rsp + 36]
.Ltmp163:
	.cv_loc	31 12 159 0
	add	rsp, 40
	ret
.Ltmp164:
.Lfunc_end7:
	.seh_endproc

	.def	_ZN3std3sys9backtrace28__rust_begin_short_backtrace17h657cc09c0d876c88E;
	.scl	3;
	.type	32;
	.endef
	.section	.text,"xr",one_only,_ZN3std3sys9backtrace28__rust_begin_short_backtrace17h657cc09c0d876c88E
	.p2align	4, 0x90
_ZN3std3sys9backtrace28__rust_begin_short_backtrace17h657cc09c0d876c88E:
.Lfunc_begin8:
	.cv_func_id 34
	.cv_file	15 "/rustc/e9e6e2e444c30c23a9c878a88fbc3978c2acad95\\library\\std\\src\\sys\\backtrace.rs" "1A03EA94CCA0454BDB71A8C624FEDFE8D857781E73E5EDBB942BA7032F36A6AA" 3
	.cv_loc	34 15 151 0
.seh_proc _ZN3std3sys9backtrace28__rust_begin_short_backtrace17h657cc09c0d876c88E
	sub	rsp, 40
	.seh_stackalloc 40
	.seh_endprologue
.Ltmp165:
	.cv_loc	34 15 155 0
	call	_ZN4core3ops8function6FnOnce9call_once17h4ccfde32eef6565aE
.Ltmp166:
	.cv_file	16 "/rustc/e9e6e2e444c30c23a9c878a88fbc3978c2acad95\\library\\core\\src\\hint.rs" "C9F11E1866430CF14703A7B77ED3BE74A28307C6096E2966C7F164C4E95416C4" 3
	.cv_inline_site_id 35 within 34 inlined_at 15 158 0
	.cv_loc	35 16 338 0
	#APP
	#NO_APP
.Ltmp167:
	.cv_loc	34 15 161 0
	nop
	add	rsp, 40
	ret
.Ltmp168:
.Lfunc_end8:
	.seh_endproc

	.def	_ZN49_$LT$F$u20$as$u20$core..str..pattern..Pattern$GT$13into_searcher17hb796f3299bfd2887E;
	.scl	3;
	.type	32;
	.endef
	.section	.text,"xr",one_only,_ZN49_$LT$F$u20$as$u20$core..str..pattern..Pattern$GT$13into_searcher17hb796f3299bfd2887E
	.p2align	4, 0x90
_ZN49_$LT$F$u20$as$u20$core..str..pattern..Pattern$GT$13into_searcher17hb796f3299bfd2887E:
.Lfunc_begin9:
	.cv_func_id 36
	.cv_loc	36 8 717 0
.seh_proc _ZN49_$LT$F$u20$as$u20$core..str..pattern..Pattern$GT$13into_searcher17hb796f3299bfd2887E
	sub	rsp, 104
	.seh_stackalloc 104
	.seh_endprologue
	mov	rax, rcx
	mov	qword ptr [rsp + 32], rax
.Ltmp169:
	.cv_inline_site_id 37 within 36 inlined_at 8 718 0
	.cv_inline_site_id 38 within 37 inlined_at 8 659 0
	.cv_file	17 "/rustc/e9e6e2e444c30c23a9c878a88fbc3978c2acad95\\library\\core\\src\\str\\mod.rs" "2566DF37E2D57677310012CB8E3EC3E5DC14DA56B6DB77B0E49B0B51D7DE1E46" 3
	.cv_inline_site_id 39 within 38 inlined_at 17 911 0
	.cv_inline_site_id 40 within 39 inlined_at 17 854 0
	.cv_file	18 "/rustc/e9e6e2e444c30c23a9c878a88fbc3978c2acad95\\library\\core\\src\\slice\\mod.rs" "C10C6D551EED786D814947FD381E19AF302478CE848906D2F46188E73B909A17" 3
	.cv_inline_site_id 41 within 40 inlined_at 18 1030 0
	.cv_file	19 "/rustc/e9e6e2e444c30c23a9c878a88fbc3978c2acad95\\library\\core\\src\\slice\\iter.rs" "4C01BFC067C4D2EAA1E26F50434BD9AD4FA47EFD9213BAA54ABFF1D9B53181A2" 3
	.cv_inline_site_id 42 within 41 inlined_at 19 98 0
	.cv_loc	42 11 1149 0
	mov	rax, rdx
	add	rax, r8
.Ltmp170:
	.cv_loc	38 17 911 0
	mov	qword ptr [rsp + 96], 0
	mov	qword ptr [rsp + 80], rdx
	mov	qword ptr [rsp + 88], rax
.Ltmp171:
	.cv_loc	37 8 659 0
	mov	qword ptr [rsp + 40], rdx
	mov	qword ptr [rsp + 48], r8
	mov	rax, qword ptr [rsp + 80]
	mov	qword ptr [rsp + 56], rax
	mov	rax, qword ptr [rsp + 88]
	mov	qword ptr [rsp + 64], rax
	mov	rax, qword ptr [rsp + 96]
	mov	qword ptr [rsp + 72], rax
.Ltmp172:
	.cv_loc	36 8 718 0
	lea	rdx, [rsp + 40]
	mov	r8d, 40
	call	memcpy
	mov	rax, qword ptr [rsp + 32]
	.cv_loc	36 8 719 0
	add	rsp, 104
	ret
.Ltmp173:
.Lfunc_end9:
	.seh_endproc

	.def	_ZN4core10intrinsics8unlikely17h82de7af6793c55f6E;
	.scl	3;
	.type	32;
	.endef
	.section	.text,"xr",one_only,_ZN4core10intrinsics8unlikely17h82de7af6793c55f6E
	.p2align	4, 0x90
_ZN4core10intrinsics8unlikely17h82de7af6793c55f6E:
.Lfunc_begin10:
	.cv_func_id 43
	.cv_file	20 "/rustc/e9e6e2e444c30c23a9c878a88fbc3978c2acad95\\library\\core\\src\\intrinsics.rs" "801CC34B8AE808CE8462F3AC4026C0469BA5F02906402611E896907CA481272B" 3
	.cv_loc	43 20 1012 0
	and	cl, 1
	movzx	eax, cl
	ret
.Ltmp174:
.Lfunc_end10:

	.def	_ZN4core3cmp9PartialEq2ne17h5369a56a34517485E;
	.scl	3;
	.type	32;
	.endef
	.section	.text,"xr",one_only,_ZN4core3cmp9PartialEq2ne17h5369a56a34517485E
	.p2align	4, 0x90
_ZN4core3cmp9PartialEq2ne17h5369a56a34517485E:
.Lfunc_begin11:
	.cv_func_id 44
	.cv_file	21 "/rustc/e9e6e2e444c30c23a9c878a88fbc3978c2acad95\\library\\core\\src\\cmp.rs" "2B7C057B9F23C850325C1389DBDEDD7081A54C9ED236BBCB1C4CD036BC12647B" 3
	.cv_loc	44 21 262 0
.seh_proc _ZN4core3cmp9PartialEq2ne17h5369a56a34517485E
	sub	rsp, 40
	.seh_stackalloc 40
	.seh_endprologue
.Ltmp175:
	.cv_loc	44 21 263 0
	call	_ZN59_$LT$switcheroo..Option$u20$as$u20$core..cmp..PartialEq$GT$2eq17h4ea35c7f56c94b50E
	xor	al, -1
	.cv_loc	44 21 264 0
	and	al, 1
	movzx	eax, al
	add	rsp, 40
	ret
.Ltmp176:
.Lfunc_end11:
	.seh_endproc

	.def	_ZN4core3fmt9Arguments9new_const17h57cfde8ab8f7b9efE;
	.scl	3;
	.type	32;
	.endef
	.section	.text,"xr",one_only,_ZN4core3fmt9Arguments9new_const17h57cfde8ab8f7b9efE
	.p2align	4, 0x90
_ZN4core3fmt9Arguments9new_const17h57cfde8ab8f7b9efE:
.Lfunc_begin12:
	.cv_func_id 45
	.cv_file	22 "/rustc/e9e6e2e444c30c23a9c878a88fbc3978c2acad95\\library\\core\\src\\fmt\\mod.rs" "1281F491BC704815B07747BC3616CBF7275B2A8E297302A77313DA94DEAF2871" 3
	.cv_loc	45 22 341 0
	.cv_loc	45 22 343 0
	mov	rax, rcx
.Ltmp177:
	mov	qword ptr [rcx], rdx
	mov	qword ptr [rcx + 8], 1
	mov	r8, qword ptr [rip + __unnamed_5]
	mov	rdx, qword ptr [rip + __unnamed_5+8]
	mov	qword ptr [rcx + 32], r8
	mov	qword ptr [rcx + 40], rdx
	mov	edx, 8
	mov	qword ptr [rcx + 16], rdx
	mov	qword ptr [rcx + 24], 0
	.cv_loc	45 22 344 0
	ret
.Ltmp178:
.Lfunc_end12:

	.def	_ZN4core3num23_$LT$impl$u20$isize$GT$13unchecked_neg18precondition_check17hd372d55880fa8095E;
	.scl	3;
	.type	32;
	.endef
	.section	.text,"xr",one_only,_ZN4core3num23_$LT$impl$u20$isize$GT$13unchecked_neg18precondition_check17hd372d55880fa8095E
	.p2align	4, 0x90
_ZN4core3num23_$LT$impl$u20$isize$GT$13unchecked_neg18precondition_check17hd372d55880fa8095E:
.Lfunc_begin13:
	.cv_func_id 46
	.cv_loc	46 3 66 0
.seh_proc _ZN4core3num23_$LT$impl$u20$isize$GT$13unchecked_neg18precondition_check17hd372d55880fa8095E
	sub	rsp, 40
	.seh_stackalloc 40
	.seh_endprologue
.Ltmp179:
	.cv_file	23 "/rustc/e9e6e2e444c30c23a9c878a88fbc3978c2acad95\\library\\core\\src\\num\\int_macros.rs" "419C01CFF4386E4EFBB926B4D33027F484F345904D6C7D130190BCAB9289F139" 3
	.cv_inline_site_id 47 within 46 inlined_at 23 1173 0
	.cv_loc	47 23 2583 0
	movabs	rax, -9223372036854775808
	cmp	rcx, rax
	sete	al
	.cv_file	24 "/rustc/e9e6e2e444c30c23a9c878a88fbc3978c2acad95\\library\\core\\src\\num\\mod.rs" "F8A71E17343D0A0C83AAAD04C16CA3B230299CD0431B635EC5D35C5FB701AFB2" 3
	.cv_loc	47 24 25 0
	and	al, 1
	mov	byte ptr [rsp + 39], al
	test	byte ptr [rsp + 39], 1
	jne	.LBB13_2
.Ltmp180:
	.cv_loc	46 3 72 0
	add	rsp, 40
	ret
.LBB13_2:
	.cv_loc	46 3 68 0
	lea	rcx, [rip + __unnamed_6]
	mov	edx, 69
	call	_ZN4core9panicking14panic_nounwind17h11d08e774c01f380E
	int3
.Ltmp181:
.Lfunc_end13:
	.seh_endproc

	.def	_ZN4core3num23_$LT$impl$u20$usize$GT$13unchecked_mul18precondition_check17h4ac4ffa3e1e60b17E;
	.scl	3;
	.type	32;
	.endef
	.section	.text,"xr",one_only,_ZN4core3num23_$LT$impl$u20$usize$GT$13unchecked_mul18precondition_check17h4ac4ffa3e1e60b17E
	.p2align	4, 0x90
_ZN4core3num23_$LT$impl$u20$usize$GT$13unchecked_mul18precondition_check17h4ac4ffa3e1e60b17E:
.Lfunc_begin14:
	.cv_func_id 48
	.cv_loc	48 3 66 0
.seh_proc _ZN4core3num23_$LT$impl$u20$usize$GT$13unchecked_mul18precondition_check17h4ac4ffa3e1e60b17E
	sub	rsp, 40
	.seh_stackalloc 40
	.seh_endprologue
	mov	rax, rcx
.Ltmp182:
	.cv_file	25 "/rustc/e9e6e2e444c30c23a9c878a88fbc3978c2acad95\\library\\core\\src\\num\\uint_macros.rs" "3F8A60AF90B0819A69C4640C97AFFB75803472249DA266E6E4BFA29EC3A0B7DF" 3
	.cv_inline_site_id 49 within 48 inlined_at 25 826 0
	.cv_loc	49 25 2295 0
	mul	rdx
	seto	al
.Ltmp183:
	.cv_loc	48 25 826 0
	jo	.LBB14_2
	.cv_loc	48 3 72 0
	add	rsp, 40
	ret
.LBB14_2:
	.cv_loc	48 3 68 0
	lea	rcx, [rip + __unnamed_7]
	mov	edx, 69
	call	_ZN4core9panicking14panic_nounwind17h11d08e774c01f380E
	int3
.Ltmp184:
.Lfunc_end14:
	.seh_endproc

	.def	_ZN4core3ops8function6FnOnce40call_once$u7b$$u7b$vtable.shim$u7d$$u7d$17h12bec47459f3943cE;
	.scl	3;
	.type	32;
	.endef
	.section	.text,"xr",one_only,_ZN4core3ops8function6FnOnce40call_once$u7b$$u7b$vtable.shim$u7d$$u7d$17h12bec47459f3943cE
	.p2align	4, 0x90
_ZN4core3ops8function6FnOnce40call_once$u7b$$u7b$vtable.shim$u7d$$u7d$17h12bec47459f3943cE:
.Lfunc_begin15:
	.cv_func_id 50
	.cv_file	26 "/rustc/e9e6e2e444c30c23a9c878a88fbc3978c2acad95\\library\\core\\src\\ops\\function.rs" "56CE021EFEA9987501544CAA0F9655C530CF8DDA7C72CD71DDE4BB5210DBF612" 3
	.cv_loc	50 26 250 0
.seh_proc _ZN4core3ops8function6FnOnce40call_once$u7b$$u7b$vtable.shim$u7d$$u7d$17h12bec47459f3943cE
	sub	rsp, 40
	.seh_stackalloc 40
	.seh_endprologue
.Ltmp185:
	mov	rcx, qword ptr [rcx]
	call	_ZN4core3ops8function6FnOnce9call_once17h41c9dba4f6650b05E
	nop
	add	rsp, 40
	ret
.Ltmp186:
.Lfunc_end15:
	.seh_endproc

	.def	_ZN4core3ops8function6FnOnce9call_once17h41c9dba4f6650b05E;
	.scl	3;
	.type	32;
	.endef
	.section	.text,"xr",one_only,_ZN4core3ops8function6FnOnce9call_once17h41c9dba4f6650b05E
	.p2align	4, 0x90
_ZN4core3ops8function6FnOnce9call_once17h41c9dba4f6650b05E:
.Lfunc_begin16:
	.cv_func_id 51
	.cv_loc	51 26 250 0
.seh_proc _ZN4core3ops8function6FnOnce9call_once17h41c9dba4f6650b05E
	.seh_handler __CxxFrameHandler3, @unwind, @except
	push	rbp
	.seh_pushreg rbp
	sub	rsp, 64
	.seh_stackalloc 64
	lea	rbp, [rsp + 64]
	.seh_setframe rbp, 64
	.seh_endprologue
	mov	qword ptr [rbp - 8], -2
	mov	qword ptr [rbp - 16], rcx
.Ltmp187:
	lea	rcx, [rbp - 16]
.Ltmp189:
	call	_ZN3std2rt10lang_start28_$u7b$$u7b$closure$u7d$$u7d$17ha1ef829de41fd0f7E
.Ltmp188:
	mov	dword ptr [rbp - 20], eax
	jmp	.LBB16_2
.LBB16_2:
	mov	eax, dword ptr [rbp - 20]
	add	rsp, 64
	pop	rbp
	ret
	.seh_handlerdata
	.long	($cppxdata$_ZN4core3ops8function6FnOnce9call_once17h41c9dba4f6650b05E)@IMGREL
	.section	.text,"xr",one_only,_ZN4core3ops8function6FnOnce9call_once17h41c9dba4f6650b05E
	.seh_endproc
	.def	"?dtor$1@?0?_ZN4core3ops8function6FnOnce9call_once17h41c9dba4f6650b05E@4HA";
	.scl	3;
	.type	32;
	.endef
	.p2align	4, 0x90
"?dtor$1@?0?_ZN4core3ops8function6FnOnce9call_once17h41c9dba4f6650b05E@4HA":
.seh_proc "?dtor$1@?0?_ZN4core3ops8function6FnOnce9call_once17h41c9dba4f6650b05E@4HA"
.LBB16_1:
	mov	qword ptr [rsp + 16], rdx
	push	rbp
	.seh_pushreg rbp
	sub	rsp, 32
	.seh_stackalloc 32
	lea	rbp, [rdx + 64]
	.seh_endprologue
	add	rsp, 32
	pop	rbp
	ret
.Ltmp190:
.Lfunc_end16:
	.seh_handlerdata
	.section	.text,"xr",one_only,_ZN4core3ops8function6FnOnce9call_once17h41c9dba4f6650b05E
	.seh_endproc
	.section	.xdata,"dr",associative,_ZN4core3ops8function6FnOnce9call_once17h41c9dba4f6650b05E
	.p2align	2, 0x0
$cppxdata$_ZN4core3ops8function6FnOnce9call_once17h41c9dba4f6650b05E:
	.long	429065506
	.long	1
	.long	($stateUnwindMap$_ZN4core3ops8function6FnOnce9call_once17h41c9dba4f6650b05E)@IMGREL
	.long	0
	.long	0
	.long	3
	.long	($ip2state$_ZN4core3ops8function6FnOnce9call_once17h41c9dba4f6650b05E)@IMGREL
	.long	56
	.long	0
	.long	1
$stateUnwindMap$_ZN4core3ops8function6FnOnce9call_once17h41c9dba4f6650b05E:
	.long	-1
	.long	"?dtor$1@?0?_ZN4core3ops8function6FnOnce9call_once17h41c9dba4f6650b05E@4HA"@IMGREL
$ip2state$_ZN4core3ops8function6FnOnce9call_once17h41c9dba4f6650b05E:
	.long	.Lfunc_begin16@IMGREL
	.long	-1
	.long	.Ltmp187@IMGREL+1
	.long	0
	.long	.Ltmp188@IMGREL+1
	.long	-1
	.section	.text,"xr",one_only,_ZN4core3ops8function6FnOnce9call_once17h41c9dba4f6650b05E

	.def	_ZN4core3ops8function6FnOnce9call_once17h4ccfde32eef6565aE;
	.scl	3;
	.type	32;
	.endef
	.section	.text,"xr",one_only,_ZN4core3ops8function6FnOnce9call_once17h4ccfde32eef6565aE
	.p2align	4, 0x90
_ZN4core3ops8function6FnOnce9call_once17h4ccfde32eef6565aE:
.Lfunc_begin17:
	.cv_func_id 52
	.cv_loc	52 26 250 0
.seh_proc _ZN4core3ops8function6FnOnce9call_once17h4ccfde32eef6565aE
	sub	rsp, 40
	.seh_stackalloc 40
	.seh_endprologue
.Ltmp191:
	call	rcx
	nop
	add	rsp, 40
	ret
.Ltmp192:
.Lfunc_end17:
	.seh_endproc

	.def	_ZN4core3ptr101drop_in_place$LT$std..io..error..ErrorData$LT$alloc..boxed..Box$LT$std..io..error..Custom$GT$$GT$$GT$17h61a405033bee8629E;
	.scl	3;
	.type	32;
	.endef
	.section	.text,"xr",one_only,_ZN4core3ptr101drop_in_place$LT$std..io..error..ErrorData$LT$alloc..boxed..Box$LT$std..io..error..Custom$GT$$GT$$GT$17h61a405033bee8629E
	.p2align	4, 0x90
_ZN4core3ptr101drop_in_place$LT$std..io..error..ErrorData$LT$alloc..boxed..Box$LT$std..io..error..Custom$GT$$GT$$GT$17h61a405033bee8629E:
.Lfunc_begin18:
	.cv_func_id 53
	.cv_file	27 "/rustc/e9e6e2e444c30c23a9c878a88fbc3978c2acad95\\library\\core\\src\\ptr\\mod.rs" "D0AD7361A898D1CE102AF79900A1F65B32E4077E3A417E8743C7B2D7BBF5DF7D" 3
	.cv_loc	53 27 542 0
.seh_proc _ZN4core3ptr101drop_in_place$LT$std..io..error..ErrorData$LT$alloc..boxed..Box$LT$std..io..error..Custom$GT$$GT$$GT$17h61a405033bee8629E
	sub	rsp, 40
	.seh_stackalloc 40
	.seh_endprologue
	mov	qword ptr [rsp + 32], rcx
.Ltmp193:
	mov	al, byte ptr [rcx]
	sub	al, 3
	jb	.LBB18_2
	jmp	.LBB18_1
.LBB18_1:
	mov	rcx, qword ptr [rsp + 32]
	add	rcx, 8
	call	_ZN4core3ptr68drop_in_place$LT$alloc..boxed..Box$LT$std..io..error..Custom$GT$$GT$17h89ece3a0bd37ef58E
.LBB18_2:
	nop
	add	rsp, 40
	ret
.Ltmp194:
.Lfunc_end18:
	.seh_endproc

	.def	_ZN4core3ptr118drop_in_place$LT$alloc..boxed..Box$LT$dyn$u20$core..error..Error$u2b$core..marker..Sync$u2b$core..marker..Send$GT$$GT$17h9e6eb4df49e22b72E;
	.scl	3;
	.type	32;
	.endef
	.section	.text,"xr",one_only,_ZN4core3ptr118drop_in_place$LT$alloc..boxed..Box$LT$dyn$u20$core..error..Error$u2b$core..marker..Sync$u2b$core..marker..Send$GT$$GT$17h9e6eb4df49e22b72E
	.p2align	4, 0x90
_ZN4core3ptr118drop_in_place$LT$alloc..boxed..Box$LT$dyn$u20$core..error..Error$u2b$core..marker..Sync$u2b$core..marker..Send$GT$$GT$17h9e6eb4df49e22b72E:
.Lfunc_begin19:
	.cv_func_id 54
	.cv_loc	54 27 542 0
.seh_proc _ZN4core3ptr118drop_in_place$LT$alloc..boxed..Box$LT$dyn$u20$core..error..Error$u2b$core..marker..Sync$u2b$core..marker..Send$GT$$GT$17h9e6eb4df49e22b72E
	.seh_handler __CxxFrameHandler3, @unwind, @except
	push	rbp
	.seh_pushreg rbp
	sub	rsp, 64
	.seh_stackalloc 64
	lea	rbp, [rsp + 64]
	.seh_setframe rbp, 64
	.seh_endprologue
	mov	qword ptr [rbp - 8], -2
	mov	qword ptr [rbp - 32], rcx
.Ltmp197:
	mov	rax, qword ptr [rcx]
	mov	qword ptr [rbp - 24], rax
	mov	rax, qword ptr [rcx + 8]
	mov	rax, qword ptr [rax]
	mov	qword ptr [rbp - 16], rax
	cmp	rax, 0
	je	.LBB19_2
.Ltmp195:
	mov	rax, qword ptr [rbp - 16]
	mov	rcx, qword ptr [rbp - 24]
	call	rax
.Ltmp196:
	jmp	.LBB19_2
.LBB19_2:
	mov	rcx, qword ptr [rbp - 32]
	call	_ZN72_$LT$alloc..boxed..Box$LT$T$C$A$GT$$u20$as$u20$core..ops..drop..Drop$GT$4drop17he000bacb830d7a83E
	nop
	add	rsp, 64
	pop	rbp
	ret
	.seh_handlerdata
	.long	($cppxdata$_ZN4core3ptr118drop_in_place$LT$alloc..boxed..Box$LT$dyn$u20$core..error..Error$u2b$core..marker..Sync$u2b$core..marker..Send$GT$$GT$17h9e6eb4df49e22b72E)@IMGREL
	.section	.text,"xr",one_only,_ZN4core3ptr118drop_in_place$LT$alloc..boxed..Box$LT$dyn$u20$core..error..Error$u2b$core..marker..Sync$u2b$core..marker..Send$GT$$GT$17h9e6eb4df49e22b72E
	.seh_endproc
	.def	"?dtor$3@?0?_ZN4core3ptr118drop_in_place$LT$alloc..boxed..Box$LT$dyn$u20$core..error..Error$u2b$core..marker..Sync$u2b$core..marker..Send$GT$$GT$17h9e6eb4df49e22b72E@4HA";
	.scl	3;
	.type	32;
	.endef
	.p2align	4, 0x90
"?dtor$3@?0?_ZN4core3ptr118drop_in_place$LT$alloc..boxed..Box$LT$dyn$u20$core..error..Error$u2b$core..marker..Sync$u2b$core..marker..Send$GT$$GT$17h9e6eb4df49e22b72E@4HA":
.seh_proc "?dtor$3@?0?_ZN4core3ptr118drop_in_place$LT$alloc..boxed..Box$LT$dyn$u20$core..error..Error$u2b$core..marker..Sync$u2b$core..marker..Send$GT$$GT$17h9e6eb4df49e22b72E@4HA"
.LBB19_3:
	mov	qword ptr [rsp + 16], rdx
	push	rbp
	.seh_pushreg rbp
	sub	rsp, 32
	.seh_stackalloc 32
	lea	rbp, [rdx + 64]
	.seh_endprologue
	mov	rcx, qword ptr [rbp - 32]
	call	_ZN72_$LT$alloc..boxed..Box$LT$T$C$A$GT$$u20$as$u20$core..ops..drop..Drop$GT$4drop17he000bacb830d7a83E
	nop
	add	rsp, 32
	pop	rbp
	ret
.Ltmp198:
.Lfunc_end19:
	.seh_handlerdata
	.section	.text,"xr",one_only,_ZN4core3ptr118drop_in_place$LT$alloc..boxed..Box$LT$dyn$u20$core..error..Error$u2b$core..marker..Sync$u2b$core..marker..Send$GT$$GT$17h9e6eb4df49e22b72E
	.seh_endproc
	.section	.xdata,"dr",associative,_ZN4core3ptr118drop_in_place$LT$alloc..boxed..Box$LT$dyn$u20$core..error..Error$u2b$core..marker..Sync$u2b$core..marker..Send$GT$$GT$17h9e6eb4df49e22b72E
	.p2align	2, 0x0
$cppxdata$_ZN4core3ptr118drop_in_place$LT$alloc..boxed..Box$LT$dyn$u20$core..error..Error$u2b$core..marker..Sync$u2b$core..marker..Send$GT$$GT$17h9e6eb4df49e22b72E:
	.long	429065506
	.long	1
	.long	($stateUnwindMap$_ZN4core3ptr118drop_in_place$LT$alloc..boxed..Box$LT$dyn$u20$core..error..Error$u2b$core..marker..Sync$u2b$core..marker..Send$GT$$GT$17h9e6eb4df49e22b72E)@IMGREL
	.long	0
	.long	0
	.long	3
	.long	($ip2state$_ZN4core3ptr118drop_in_place$LT$alloc..boxed..Box$LT$dyn$u20$core..error..Error$u2b$core..marker..Sync$u2b$core..marker..Send$GT$$GT$17h9e6eb4df49e22b72E)@IMGREL
	.long	56
	.long	0
	.long	1
$stateUnwindMap$_ZN4core3ptr118drop_in_place$LT$alloc..boxed..Box$LT$dyn$u20$core..error..Error$u2b$core..marker..Sync$u2b$core..marker..Send$GT$$GT$17h9e6eb4df49e22b72E:
	.long	-1
	.long	"?dtor$3@?0?_ZN4core3ptr118drop_in_place$LT$alloc..boxed..Box$LT$dyn$u20$core..error..Error$u2b$core..marker..Sync$u2b$core..marker..Send$GT$$GT$17h9e6eb4df49e22b72E@4HA"@IMGREL
$ip2state$_ZN4core3ptr118drop_in_place$LT$alloc..boxed..Box$LT$dyn$u20$core..error..Error$u2b$core..marker..Sync$u2b$core..marker..Send$GT$$GT$17h9e6eb4df49e22b72E:
	.long	.Lfunc_begin19@IMGREL
	.long	-1
	.long	.Ltmp195@IMGREL+1
	.long	0
	.long	.Ltmp196@IMGREL+1
	.long	-1
	.section	.text,"xr",one_only,_ZN4core3ptr118drop_in_place$LT$alloc..boxed..Box$LT$dyn$u20$core..error..Error$u2b$core..marker..Sync$u2b$core..marker..Send$GT$$GT$17h9e6eb4df49e22b72E

	.def	_ZN4core3ptr42drop_in_place$LT$alloc..string..String$GT$17hdff560eefda1a1a6E;
	.scl	3;
	.type	32;
	.endef
	.section	.text,"xr",one_only,_ZN4core3ptr42drop_in_place$LT$alloc..string..String$GT$17hdff560eefda1a1a6E
	.p2align	4, 0x90
_ZN4core3ptr42drop_in_place$LT$alloc..string..String$GT$17hdff560eefda1a1a6E:
.Lfunc_begin20:
	.cv_func_id 55
	.cv_loc	55 27 542 0
.seh_proc _ZN4core3ptr42drop_in_place$LT$alloc..string..String$GT$17hdff560eefda1a1a6E
	sub	rsp, 40
	.seh_stackalloc 40
	.seh_endprologue
.Ltmp199:
	call	_ZN4core3ptr46drop_in_place$LT$alloc..vec..Vec$LT$u8$GT$$GT$17h9ab1dd1fc123ae41E
	nop
	add	rsp, 40
	ret
.Ltmp200:
.Lfunc_end20:
	.seh_endproc

	.def	_ZN4core3ptr42drop_in_place$LT$std..io..error..Error$GT$17h9789a53d6ad8d0a8E;
	.scl	3;
	.type	32;
	.endef
	.section	.text,"xr",one_only,_ZN4core3ptr42drop_in_place$LT$std..io..error..Error$GT$17h9789a53d6ad8d0a8E
	.p2align	4, 0x90
_ZN4core3ptr42drop_in_place$LT$std..io..error..Error$GT$17h9789a53d6ad8d0a8E:
.Lfunc_begin21:
	.cv_func_id 56
	.cv_loc	56 27 542 0
.seh_proc _ZN4core3ptr42drop_in_place$LT$std..io..error..Error$GT$17h9789a53d6ad8d0a8E
	sub	rsp, 40
	.seh_stackalloc 40
	.seh_endprologue
.Ltmp201:
	call	_ZN4core3ptr57drop_in_place$LT$std..io..error..repr_bitpacked..Repr$GT$17h7f5ab1f4c349c79aE
	nop
	add	rsp, 40
	ret
.Ltmp202:
.Lfunc_end21:
	.seh_endproc

	.def	_ZN4core3ptr43drop_in_place$LT$std..io..error..Custom$GT$17h52380daa6b88db10E;
	.scl	3;
	.type	32;
	.endef
	.section	.text,"xr",one_only,_ZN4core3ptr43drop_in_place$LT$std..io..error..Custom$GT$17h52380daa6b88db10E
	.p2align	4, 0x90
_ZN4core3ptr43drop_in_place$LT$std..io..error..Custom$GT$17h52380daa6b88db10E:
.Lfunc_begin22:
	.cv_func_id 57
	.cv_loc	57 27 542 0
.seh_proc _ZN4core3ptr43drop_in_place$LT$std..io..error..Custom$GT$17h52380daa6b88db10E
	sub	rsp, 40
	.seh_stackalloc 40
	.seh_endprologue
.Ltmp203:
	call	_ZN4core3ptr118drop_in_place$LT$alloc..boxed..Box$LT$dyn$u20$core..error..Error$u2b$core..marker..Sync$u2b$core..marker..Send$GT$$GT$17h9e6eb4df49e22b72E
	nop
	add	rsp, 40
	ret
.Ltmp204:
.Lfunc_end22:
	.seh_endproc

	.def	_ZN4core3ptr46drop_in_place$LT$alloc..vec..Vec$LT$u8$GT$$GT$17h9ab1dd1fc123ae41E;
	.scl	3;
	.type	32;
	.endef
	.section	.text,"xr",one_only,_ZN4core3ptr46drop_in_place$LT$alloc..vec..Vec$LT$u8$GT$$GT$17h9ab1dd1fc123ae41E
	.p2align	4, 0x90
_ZN4core3ptr46drop_in_place$LT$alloc..vec..Vec$LT$u8$GT$$GT$17h9ab1dd1fc123ae41E:
.Lfunc_begin23:
	.cv_func_id 58
	.cv_loc	58 27 542 0
.seh_proc _ZN4core3ptr46drop_in_place$LT$alloc..vec..Vec$LT$u8$GT$$GT$17h9ab1dd1fc123ae41E
	.seh_handler __CxxFrameHandler3, @unwind, @except
	push	rbp
	.seh_pushreg rbp
	sub	rsp, 48
	.seh_stackalloc 48
	lea	rbp, [rsp + 48]
	.seh_setframe rbp, 48
	.seh_endprologue
	mov	qword ptr [rbp - 8], -2
	mov	qword ptr [rbp - 16], rcx
.Ltmp205:
.Ltmp207:
	call	_ZN70_$LT$alloc..vec..Vec$LT$T$C$A$GT$$u20$as$u20$core..ops..drop..Drop$GT$4drop17hf7d0c05ff9b094eeE
.Ltmp206:
	jmp	.LBB23_2
.LBB23_2:
	mov	rcx, qword ptr [rbp - 16]
	call	_ZN4core3ptr53drop_in_place$LT$alloc..raw_vec..RawVec$LT$u8$GT$$GT$17h4ec67cd19681b898E
	nop
	add	rsp, 48
	pop	rbp
	ret
	.seh_handlerdata
	.long	($cppxdata$_ZN4core3ptr46drop_in_place$LT$alloc..vec..Vec$LT$u8$GT$$GT$17h9ab1dd1fc123ae41E)@IMGREL
	.section	.text,"xr",one_only,_ZN4core3ptr46drop_in_place$LT$alloc..vec..Vec$LT$u8$GT$$GT$17h9ab1dd1fc123ae41E
	.seh_endproc
	.def	"?dtor$1@?0?_ZN4core3ptr46drop_in_place$LT$alloc..vec..Vec$LT$u8$GT$$GT$17h9ab1dd1fc123ae41E@4HA";
	.scl	3;
	.type	32;
	.endef
	.p2align	4, 0x90
"?dtor$1@?0?_ZN4core3ptr46drop_in_place$LT$alloc..vec..Vec$LT$u8$GT$$GT$17h9ab1dd1fc123ae41E@4HA":
.seh_proc "?dtor$1@?0?_ZN4core3ptr46drop_in_place$LT$alloc..vec..Vec$LT$u8$GT$$GT$17h9ab1dd1fc123ae41E@4HA"
.LBB23_1:
	mov	qword ptr [rsp + 16], rdx
	push	rbp
	.seh_pushreg rbp
	sub	rsp, 32
	.seh_stackalloc 32
	lea	rbp, [rdx + 48]
	.seh_endprologue
	mov	rcx, qword ptr [rbp - 16]
	call	_ZN4core3ptr53drop_in_place$LT$alloc..raw_vec..RawVec$LT$u8$GT$$GT$17h4ec67cd19681b898E
	nop
	add	rsp, 32
	pop	rbp
	ret
.Ltmp208:
.Lfunc_end23:
	.seh_handlerdata
	.section	.text,"xr",one_only,_ZN4core3ptr46drop_in_place$LT$alloc..vec..Vec$LT$u8$GT$$GT$17h9ab1dd1fc123ae41E
	.seh_endproc
	.section	.xdata,"dr",associative,_ZN4core3ptr46drop_in_place$LT$alloc..vec..Vec$LT$u8$GT$$GT$17h9ab1dd1fc123ae41E
	.p2align	2, 0x0
$cppxdata$_ZN4core3ptr46drop_in_place$LT$alloc..vec..Vec$LT$u8$GT$$GT$17h9ab1dd1fc123ae41E:
	.long	429065506
	.long	1
	.long	($stateUnwindMap$_ZN4core3ptr46drop_in_place$LT$alloc..vec..Vec$LT$u8$GT$$GT$17h9ab1dd1fc123ae41E)@IMGREL
	.long	0
	.long	0
	.long	3
	.long	($ip2state$_ZN4core3ptr46drop_in_place$LT$alloc..vec..Vec$LT$u8$GT$$GT$17h9ab1dd1fc123ae41E)@IMGREL
	.long	40
	.long	0
	.long	1
$stateUnwindMap$_ZN4core3ptr46drop_in_place$LT$alloc..vec..Vec$LT$u8$GT$$GT$17h9ab1dd1fc123ae41E:
	.long	-1
	.long	"?dtor$1@?0?_ZN4core3ptr46drop_in_place$LT$alloc..vec..Vec$LT$u8$GT$$GT$17h9ab1dd1fc123ae41E@4HA"@IMGREL
$ip2state$_ZN4core3ptr46drop_in_place$LT$alloc..vec..Vec$LT$u8$GT$$GT$17h9ab1dd1fc123ae41E:
	.long	.Lfunc_begin23@IMGREL
	.long	-1
	.long	.Ltmp205@IMGREL+1
	.long	0
	.long	.Ltmp206@IMGREL+1
	.long	-1
	.section	.text,"xr",one_only,_ZN4core3ptr46drop_in_place$LT$alloc..vec..Vec$LT$u8$GT$$GT$17h9ab1dd1fc123ae41E

	.def	_ZN4core3ptr53drop_in_place$LT$alloc..raw_vec..RawVec$LT$u8$GT$$GT$17h4ec67cd19681b898E;
	.scl	3;
	.type	32;
	.endef
	.section	.text,"xr",one_only,_ZN4core3ptr53drop_in_place$LT$alloc..raw_vec..RawVec$LT$u8$GT$$GT$17h4ec67cd19681b898E
	.p2align	4, 0x90
_ZN4core3ptr53drop_in_place$LT$alloc..raw_vec..RawVec$LT$u8$GT$$GT$17h4ec67cd19681b898E:
.Lfunc_begin24:
	.cv_func_id 59
	.cv_loc	59 27 542 0
.seh_proc _ZN4core3ptr53drop_in_place$LT$alloc..raw_vec..RawVec$LT$u8$GT$$GT$17h4ec67cd19681b898E
	sub	rsp, 40
	.seh_stackalloc 40
	.seh_endprologue
.Ltmp209:
	call	_ZN77_$LT$alloc..raw_vec..RawVec$LT$T$C$A$GT$$u20$as$u20$core..ops..drop..Drop$GT$4drop17h2be8b4d1303ce81eE
	nop
	add	rsp, 40
	ret
.Ltmp210:
.Lfunc_end24:
	.seh_endproc

	.def	_ZN4core3ptr57drop_in_place$LT$std..io..error..repr_bitpacked..Repr$GT$17h7f5ab1f4c349c79aE;
	.scl	3;
	.type	32;
	.endef
	.section	.text,"xr",one_only,_ZN4core3ptr57drop_in_place$LT$std..io..error..repr_bitpacked..Repr$GT$17h7f5ab1f4c349c79aE
	.p2align	4, 0x90
_ZN4core3ptr57drop_in_place$LT$std..io..error..repr_bitpacked..Repr$GT$17h7f5ab1f4c349c79aE:
.Lfunc_begin25:
	.cv_func_id 60
	.cv_loc	60 27 542 0
.seh_proc _ZN4core3ptr57drop_in_place$LT$std..io..error..repr_bitpacked..Repr$GT$17h7f5ab1f4c349c79aE
	sub	rsp, 40
	.seh_stackalloc 40
	.seh_endprologue
.Ltmp211:
	call	_ZN78_$LT$std..io..error..repr_bitpacked..Repr$u20$as$u20$core..ops..drop..Drop$GT$4drop17he723dc0296b1bf77E
	nop
	add	rsp, 40
	ret
.Ltmp212:
.Lfunc_end25:
	.seh_endproc

	.def	_ZN4core3ptr68drop_in_place$LT$alloc..boxed..Box$LT$std..io..error..Custom$GT$$GT$17h89ece3a0bd37ef58E;
	.scl	3;
	.type	32;
	.endef
	.section	.text,"xr",one_only,_ZN4core3ptr68drop_in_place$LT$alloc..boxed..Box$LT$std..io..error..Custom$GT$$GT$17h89ece3a0bd37ef58E
	.p2align	4, 0x90
_ZN4core3ptr68drop_in_place$LT$alloc..boxed..Box$LT$std..io..error..Custom$GT$$GT$17h89ece3a0bd37ef58E:
.Lfunc_begin26:
	.cv_func_id 61
	.cv_loc	61 27 542 0
.seh_proc _ZN4core3ptr68drop_in_place$LT$alloc..boxed..Box$LT$std..io..error..Custom$GT$$GT$17h89ece3a0bd37ef58E
	.seh_handler __CxxFrameHandler3, @unwind, @except
	push	rbp
	.seh_pushreg rbp
	sub	rsp, 48
	.seh_stackalloc 48
	lea	rbp, [rsp + 48]
	.seh_setframe rbp, 48
	.seh_endprologue
	mov	qword ptr [rbp - 8], -2
	mov	qword ptr [rbp - 16], rcx
.Ltmp215:
	mov	rcx, qword ptr [rcx]
.Ltmp213:
	call	_ZN4core3ptr43drop_in_place$LT$std..io..error..Custom$GT$17h52380daa6b88db10E
.Ltmp214:
	jmp	.LBB26_2
.LBB26_2:
	mov	rcx, qword ptr [rbp - 16]
	call	_ZN72_$LT$alloc..boxed..Box$LT$T$C$A$GT$$u20$as$u20$core..ops..drop..Drop$GT$4drop17hf731b19093fdcfa4E
	nop
	add	rsp, 48
	pop	rbp
	ret
	.seh_handlerdata
	.long	($cppxdata$_ZN4core3ptr68drop_in_place$LT$alloc..boxed..Box$LT$std..io..error..Custom$GT$$GT$17h89ece3a0bd37ef58E)@IMGREL
	.section	.text,"xr",one_only,_ZN4core3ptr68drop_in_place$LT$alloc..boxed..Box$LT$std..io..error..Custom$GT$$GT$17h89ece3a0bd37ef58E
	.seh_endproc
	.def	"?dtor$1@?0?_ZN4core3ptr68drop_in_place$LT$alloc..boxed..Box$LT$std..io..error..Custom$GT$$GT$17h89ece3a0bd37ef58E@4HA";
	.scl	3;
	.type	32;
	.endef
	.p2align	4, 0x90
"?dtor$1@?0?_ZN4core3ptr68drop_in_place$LT$alloc..boxed..Box$LT$std..io..error..Custom$GT$$GT$17h89ece3a0bd37ef58E@4HA":
.seh_proc "?dtor$1@?0?_ZN4core3ptr68drop_in_place$LT$alloc..boxed..Box$LT$std..io..error..Custom$GT$$GT$17h89ece3a0bd37ef58E@4HA"
.LBB26_1:
	mov	qword ptr [rsp + 16], rdx
	push	rbp
	.seh_pushreg rbp
	sub	rsp, 32
	.seh_stackalloc 32
	lea	rbp, [rdx + 48]
	.seh_endprologue
	mov	rcx, qword ptr [rbp - 16]
	call	_ZN72_$LT$alloc..boxed..Box$LT$T$C$A$GT$$u20$as$u20$core..ops..drop..Drop$GT$4drop17hf731b19093fdcfa4E
	nop
	add	rsp, 32
	pop	rbp
	ret
.Ltmp216:
.Lfunc_end26:
	.seh_handlerdata
	.section	.text,"xr",one_only,_ZN4core3ptr68drop_in_place$LT$alloc..boxed..Box$LT$std..io..error..Custom$GT$$GT$17h89ece3a0bd37ef58E
	.seh_endproc
	.section	.xdata,"dr",associative,_ZN4core3ptr68drop_in_place$LT$alloc..boxed..Box$LT$std..io..error..Custom$GT$$GT$17h89ece3a0bd37ef58E
	.p2align	2, 0x0
$cppxdata$_ZN4core3ptr68drop_in_place$LT$alloc..boxed..Box$LT$std..io..error..Custom$GT$$GT$17h89ece3a0bd37ef58E:
	.long	429065506
	.long	1
	.long	($stateUnwindMap$_ZN4core3ptr68drop_in_place$LT$alloc..boxed..Box$LT$std..io..error..Custom$GT$$GT$17h89ece3a0bd37ef58E)@IMGREL
	.long	0
	.long	0
	.long	3
	.long	($ip2state$_ZN4core3ptr68drop_in_place$LT$alloc..boxed..Box$LT$std..io..error..Custom$GT$$GT$17h89ece3a0bd37ef58E)@IMGREL
	.long	40
	.long	0
	.long	1
$stateUnwindMap$_ZN4core3ptr68drop_in_place$LT$alloc..boxed..Box$LT$std..io..error..Custom$GT$$GT$17h89ece3a0bd37ef58E:
	.long	-1
	.long	"?dtor$1@?0?_ZN4core3ptr68drop_in_place$LT$alloc..boxed..Box$LT$std..io..error..Custom$GT$$GT$17h89ece3a0bd37ef58E@4HA"@IMGREL
$ip2state$_ZN4core3ptr68drop_in_place$LT$alloc..boxed..Box$LT$std..io..error..Custom$GT$$GT$17h89ece3a0bd37ef58E:
	.long	.Lfunc_begin26@IMGREL
	.long	-1
	.long	.Ltmp213@IMGREL+1
	.long	0
	.long	.Ltmp214@IMGREL+1
	.long	-1
	.section	.text,"xr",one_only,_ZN4core3ptr68drop_in_place$LT$alloc..boxed..Box$LT$std..io..error..Custom$GT$$GT$17h89ece3a0bd37ef58E

	.def	_ZN4core3ptr85drop_in_place$LT$std..rt..lang_start$LT$$LP$$RP$$GT$..$u7b$$u7b$closure$u7d$$u7d$$GT$17h59e39a619ca766eaE;
	.scl	3;
	.type	32;
	.endef
	.section	.text,"xr",one_only,_ZN4core3ptr85drop_in_place$LT$std..rt..lang_start$LT$$LP$$RP$$GT$..$u7b$$u7b$closure$u7d$$u7d$$GT$17h59e39a619ca766eaE
	.p2align	4, 0x90
_ZN4core3ptr85drop_in_place$LT$std..rt..lang_start$LT$$LP$$RP$$GT$..$u7b$$u7b$closure$u7d$$u7d$$GT$17h59e39a619ca766eaE:
.Lfunc_begin27:
	.cv_func_id 62
	.cv_loc	62 27 542 0
	ret
.Ltmp217:
.Lfunc_end27:

	.def	_ZN4core3ptr8non_null16NonNull$LT$T$GT$13new_unchecked18precondition_check17ha55148275926d55bE;
	.scl	3;
	.type	32;
	.endef
	.section	.text,"xr",one_only,_ZN4core3ptr8non_null16NonNull$LT$T$GT$13new_unchecked18precondition_check17ha55148275926d55bE
	.p2align	4, 0x90
_ZN4core3ptr8non_null16NonNull$LT$T$GT$13new_unchecked18precondition_check17ha55148275926d55bE:
.Lfunc_begin28:
	.cv_func_id 63
	.cv_loc	63 3 66 0
.seh_proc _ZN4core3ptr8non_null16NonNull$LT$T$GT$13new_unchecked18precondition_check17ha55148275926d55bE
	sub	rsp, 40
	.seh_stackalloc 40
	.seh_endprologue
.Ltmp218:
	.cv_loc	63 6 223 0
	cmp	rcx, 0
	jne	.LBB28_2
	.cv_loc	63 3 68 0
	lea	rcx, [rip + __unnamed_8]
	mov	edx, 93
	call	_ZN4core9panicking14panic_nounwind17h11d08e774c01f380E
.LBB28_2:
	.cv_loc	63 3 72 0
	nop
	add	rsp, 40
	ret
.Ltmp219:
.Lfunc_end28:
	.seh_endproc

	.def	_ZN4core3ptr93drop_in_place$LT$dyn$u20$core..error..Error$u2b$core..marker..Sync$u2b$core..marker..Send$GT$17h1a6160276f270813E;
	.scl	3;
	.type	32;
	.endef
	.section	.text,"xr",one_only,_ZN4core3ptr93drop_in_place$LT$dyn$u20$core..error..Error$u2b$core..marker..Sync$u2b$core..marker..Send$GT$17h1a6160276f270813E
	.p2align	4, 0x90
_ZN4core3ptr93drop_in_place$LT$dyn$u20$core..error..Error$u2b$core..marker..Sync$u2b$core..marker..Send$GT$17h1a6160276f270813E:
.Lfunc_begin29:
	.cv_func_id 64
	.cv_loc	64 27 542 0
.seh_proc _ZN4core3ptr93drop_in_place$LT$dyn$u20$core..error..Error$u2b$core..marker..Sync$u2b$core..marker..Send$GT$17h1a6160276f270813E
	sub	rsp, 56
	.seh_stackalloc 56
	.seh_endprologue
	mov	qword ptr [rsp + 40], rcx
.Ltmp220:
	mov	rax, qword ptr [rdx]
	mov	qword ptr [rsp + 48], rax
	cmp	rax, 0
	je	.LBB29_2
	mov	rax, qword ptr [rsp + 48]
	mov	rcx, qword ptr [rsp + 40]
	call	rax
.LBB29_2:
	nop
	add	rsp, 56
	ret
.Ltmp221:
.Lfunc_end29:
	.seh_endproc

	.def	_ZN4core3ptr9const_ptr33_$LT$impl$u20$$BP$const$u20$T$GT$7sub_ptr18precondition_check17h1b9b6d70841970c1E;
	.scl	3;
	.type	32;
	.endef
	.section	.text,"xr",one_only,_ZN4core3ptr9const_ptr33_$LT$impl$u20$$BP$const$u20$T$GT$7sub_ptr18precondition_check17h1b9b6d70841970c1E
	.p2align	4, 0x90
_ZN4core3ptr9const_ptr33_$LT$impl$u20$$BP$const$u20$T$GT$7sub_ptr18precondition_check17h1b9b6d70841970c1E:
.Lfunc_begin30:
	.cv_func_id 65
	.cv_loc	65 3 66 0
.seh_proc _ZN4core3ptr9const_ptr33_$LT$impl$u20$$BP$const$u20$T$GT$7sub_ptr18precondition_check17h1b9b6d70841970c1E
	sub	rsp, 40
	.seh_stackalloc 40
	.seh_endprologue
.Ltmp222:
	.cv_inline_site_id 66 within 65 inlined_at 7 878 0
	.cv_inline_site_id 67 within 66 inlined_at 7 869 0
	.cv_loc	67 7 862 0
	cmp	rcx, rdx
.Ltmp223:
	.cv_loc	65 7 878 0
	jae	.LBB30_2
	.cv_loc	65 3 68 0
	lea	rcx, [rip + __unnamed_9]
	mov	edx, 71
	call	_ZN4core9panicking14panic_nounwind17h11d08e774c01f380E
.LBB30_2:
	.cv_loc	65 3 72 0
	nop
	add	rsp, 40
	ret
.Ltmp224:
.Lfunc_end30:
	.seh_endproc

	.def	_ZN4core3str11validations15next_code_point17h344da708d3279b80E;
	.scl	3;
	.type	32;
	.endef
	.section	.text,"xr",one_only,_ZN4core3str11validations15next_code_point17h344da708d3279b80E
	.p2align	4, 0x90
_ZN4core3str11validations15next_code_point17h344da708d3279b80E:
.Lfunc_begin31:
	.cv_func_id 68
	.cv_file	28 "/rustc/e9e6e2e444c30c23a9c878a88fbc3978c2acad95\\library\\core\\src\\str\\validations.rs" "38A7C3F0A7F95FA9D6FFD2D7DAB5F816818600A959A99C60F0588BFDB149223E" 3
	.cv_loc	68 28 36 0
.seh_proc _ZN4core3str11validations15next_code_point17h344da708d3279b80E
	sub	rsp, 120
	.seh_stackalloc 120
	.seh_endprologue
	mov	qword ptr [rsp + 56], rcx
.Ltmp225:
	.cv_loc	68 28 38 0
	call	_ZN91_$LT$core..slice..iter..Iter$LT$T$GT$$u20$as$u20$core..iter..traits..iterator..Iterator$GT$4next17hf27b697d5f0efa6bE
	mov	qword ptr [rsp + 80], rax
.Ltmp226:
	.cv_inline_site_id 69 within 68 inlined_at 28 38 0
	.cv_loc	69 2 2483 0
	mov	rdx, qword ptr [rsp + 80]
	mov	eax, 1
	xor	ecx, ecx
	cmp	rdx, 0
	cmove	rax, rcx
	cmp	rax, 0
	jne	.LBB31_2
.Ltmp227:
	.cv_inline_site_id 70 within 68 inlined_at 28 38 0
	.cv_loc	70 2 2495 0
	mov	ecx, dword ptr [rip + __unnamed_10]
	mov	eax, dword ptr [rip + __unnamed_10+4]
	mov	dword ptr [rsp + 64], ecx
	mov	dword ptr [rsp + 68], eax
.Ltmp228:
	.cv_loc	68 9 1 0
	jmp	.LBB31_3
.LBB31_2:
.Ltmp229:
	.cv_loc	69 2 2484 0
	mov	rax, qword ptr [rsp + 80]
.Ltmp230:
	.cv_loc	69 2 2484 0
	mov	qword ptr [rsp + 72], rax
.Ltmp231:
	.cv_loc	68 28 38 0
	mov	rax, qword ptr [rsp + 72]
	mov	al, byte ptr [rax]
	mov	byte ptr [rsp + 55], al
.Ltmp232:
	.cv_loc	68 28 39 0
	cmp	al, -128
	jb	.LBB31_5
	jmp	.LBB31_4
.Ltmp233:
.LBB31_3:
	.cv_loc	68 28 70 0
	mov	eax, dword ptr [rsp + 64]
	mov	edx, dword ptr [rsp + 68]
	add	rsp, 120
	ret
.LBB31_4:
	.cv_inline_site_id 71 within 68 inlined_at 28 46 0
	.cv_loc	71 28 12 0
	mov	rcx, qword ptr [rsp + 56]
	mov	al, byte ptr [rsp + 55]
.Ltmp234:
	and	al, 31
	movzx	eax, al
	mov	dword ptr [rsp + 48], eax
.Ltmp235:
	.cv_loc	68 28 49 0
	call	_ZN91_$LT$core..slice..iter..Iter$LT$T$GT$$u20$as$u20$core..iter..traits..iterator..Iterator$GT$4next17hf27b697d5f0efa6bE
	mov	qword ptr [rsp + 88], rax
.Ltmp236:
	.cv_inline_site_id 72 within 68 inlined_at 28 49 0
	.cv_loc	72 2 1068 0
	mov	rdx, qword ptr [rsp + 88]
	mov	eax, 1
	xor	ecx, ecx
	cmp	rdx, 0
	cmove	rax, rcx
	cmp	rax, 0
	je	.LBB31_6
	jmp	.LBB31_7
.Ltmp237:
.LBB31_5:
	.cv_loc	68 28 40 0
	mov	al, byte ptr [rsp + 55]
	movzx	eax, al
	mov	dword ptr [rsp + 68], eax
	mov	dword ptr [rsp + 64], 1
	.cv_loc	68 9 1 0
	jmp	.LBB31_3
.LBB31_6:
.Ltmp238:
	.cv_inline_site_id 73 within 72 inlined_at 2 1071 0
	.cv_loc	73 3 75 0
	call	_ZN4core4hint21unreachable_unchecked18precondition_check17h1cfe469db0b0df09E
	jmp	.LBB31_8
.Ltmp239:
.LBB31_7:
	.cv_loc	72 2 1069 0
	mov	al, byte ptr [rsp + 55]
	mov	ecx, dword ptr [rsp + 48]
	mov	rdx, qword ptr [rsp + 88]
.Ltmp240:
	.cv_loc	68 28 49 0
	mov	dl, byte ptr [rdx]
.Ltmp241:
	.cv_inline_site_id 74 within 68 inlined_at 28 50 0
	.cv_loc	74 28 18 0
	shl	ecx, 6
	and	dl, 63
	movzx	edx, dl
	mov	dword ptr [rsp + 44], edx
	or	ecx, edx
	mov	dword ptr [rsp + 100], ecx
.Ltmp242:
	.cv_loc	68 28 51 0
	cmp	al, -32
	jae	.LBB31_10
	jmp	.LBB31_9
.Ltmp243:
.LBB31_8:
	.cv_loc	68 28 38 0
	ud2
.LBB31_9:
.Ltmp244:
	.cv_loc	68 28 69 0
	mov	eax, dword ptr [rsp + 100]
	mov	dword ptr [rsp + 68], eax
	mov	dword ptr [rsp + 64], 1
.Ltmp245:
	.cv_loc	68 28 70 0
	jmp	.LBB31_3
.LBB31_10:
	.cv_loc	68 28 56 0
	mov	rcx, qword ptr [rsp + 56]
.Ltmp246:
	call	_ZN91_$LT$core..slice..iter..Iter$LT$T$GT$$u20$as$u20$core..iter..traits..iterator..Iterator$GT$4next17hf27b697d5f0efa6bE
	mov	qword ptr [rsp + 104], rax
.Ltmp247:
	.cv_inline_site_id 75 within 68 inlined_at 28 56 0
	.cv_loc	75 2 1068 0
	mov	rdx, qword ptr [rsp + 104]
	mov	eax, 1
	xor	ecx, ecx
	cmp	rdx, 0
	cmove	rax, rcx
	cmp	rax, 0
	jne	.LBB31_12
.Ltmp248:
	.cv_inline_site_id 76 within 75 inlined_at 2 1071 0
	.cv_loc	76 3 75 0
	call	_ZN4core4hint21unreachable_unchecked18precondition_check17h1cfe469db0b0df09E
	jmp	.LBB31_8
.Ltmp249:
.LBB31_12:
	.cv_loc	75 2 1069 0
	mov	al, byte ptr [rsp + 55]
	mov	ecx, dword ptr [rsp + 48]
	mov	edx, dword ptr [rsp + 44]
	mov	r8, qword ptr [rsp + 104]
.Ltmp250:
	.cv_loc	68 28 56 0
	mov	r8b, byte ptr [r8]
.Ltmp251:
	.cv_inline_site_id 77 within 68 inlined_at 28 57 0
	.cv_loc	77 28 18 0
	shl	edx, 6
	and	r8b, 63
	movzx	r8d, r8b
	or	edx, r8d
	mov	dword ptr [rsp + 40], edx
.Ltmp252:
	.cv_loc	68 28 58 0
	shl	ecx, 12
	or	ecx, edx
	mov	dword ptr [rsp + 100], ecx
	.cv_loc	68 28 59 0
	cmp	al, -16
	jae	.LBB31_14
.Ltmp253:
.LBB31_13:
	.cv_loc	68 28 51 0
	jmp	.LBB31_9
.LBB31_14:
	.cv_loc	68 28 64 0
	mov	rcx, qword ptr [rsp + 56]
.Ltmp254:
	call	_ZN91_$LT$core..slice..iter..Iter$LT$T$GT$$u20$as$u20$core..iter..traits..iterator..Iterator$GT$4next17hf27b697d5f0efa6bE
	mov	qword ptr [rsp + 112], rax
.Ltmp255:
	.cv_inline_site_id 78 within 68 inlined_at 28 64 0
	.cv_loc	78 2 1068 0
	mov	rdx, qword ptr [rsp + 112]
	mov	eax, 1
	xor	ecx, ecx
	cmp	rdx, 0
	cmove	rax, rcx
	cmp	rax, 0
	jne	.LBB31_16
.Ltmp256:
	.cv_inline_site_id 79 within 78 inlined_at 2 1071 0
	.cv_loc	79 3 75 0
	call	_ZN4core4hint21unreachable_unchecked18precondition_check17h1cfe469db0b0df09E
	jmp	.LBB31_8
.Ltmp257:
.LBB31_16:
	.cv_loc	78 2 1069 0
	mov	ecx, dword ptr [rsp + 40]
	mov	eax, dword ptr [rsp + 48]
	mov	rdx, qword ptr [rsp + 112]
.Ltmp258:
	.cv_loc	68 28 64 0
	mov	dl, byte ptr [rdx]
.Ltmp259:
	.cv_loc	68 28 65 0
	and	eax, 7
	shl	eax, 18
.Ltmp260:
	.cv_inline_site_id 80 within 68 inlined_at 28 65 0
	.cv_loc	80 28 18 0
	shl	ecx, 6
	and	dl, 63
	movzx	edx, dl
	or	ecx, edx
.Ltmp261:
	.cv_loc	68 28 65 0
	or	eax, ecx
	mov	dword ptr [rsp + 100], eax
.Ltmp262:
	.cv_loc	68 28 59 0
	jmp	.LBB31_13
.Ltmp263:
.Lfunc_end31:
	.seh_endproc

	.def	_ZN4core3str11validations23next_code_point_reverse17h2b09eacdea5aa5c8E;
	.scl	3;
	.type	32;
	.endef
	.section	.text,"xr",one_only,_ZN4core3str11validations23next_code_point_reverse17h2b09eacdea5aa5c8E
	.p2align	4, 0x90
_ZN4core3str11validations23next_code_point_reverse17h2b09eacdea5aa5c8E:
.Lfunc_begin32:
	.cv_func_id 81
	.cv_loc	81 28 79 0
.seh_proc _ZN4core3str11validations23next_code_point_reverse17h2b09eacdea5aa5c8E
	sub	rsp, 104
	.seh_stackalloc 104
	.seh_endprologue
	mov	qword ptr [rsp + 40], rcx
.Ltmp264:
	.cv_loc	81 28 84 0
	call	_ZN106_$LT$core..slice..iter..Iter$LT$T$GT$$u20$as$u20$core..iter..traits..double_ended..DoubleEndedIterator$GT$9next_back17ha601cc7ebcefb9c8E
	mov	qword ptr [rsp + 64], rax
.Ltmp265:
	.cv_inline_site_id 82 within 81 inlined_at 28 84 0
	.cv_loc	82 2 2483 0
	mov	rdx, qword ptr [rsp + 64]
	mov	eax, 1
	xor	ecx, ecx
	cmp	rdx, 0
	cmove	rax, rcx
	cmp	rax, 0
	jne	.LBB32_2
.Ltmp266:
	.cv_inline_site_id 83 within 81 inlined_at 28 84 0
	.cv_loc	83 2 2495 0
	mov	ecx, dword ptr [rip + __unnamed_10]
	mov	eax, dword ptr [rip + __unnamed_10+4]
	mov	dword ptr [rsp + 48], ecx
	mov	dword ptr [rsp + 52], eax
.Ltmp267:
	.cv_loc	81 9 1 0
	jmp	.LBB32_3
.LBB32_2:
.Ltmp268:
	.cv_loc	82 2 2484 0
	mov	rax, qword ptr [rsp + 64]
.Ltmp269:
	.cv_loc	82 2 2484 0
	mov	qword ptr [rsp + 56], rax
.Ltmp270:
	.cv_loc	81 28 84 0
	mov	rax, qword ptr [rsp + 56]
	.cv_loc	81 28 85 0
	mov	al, byte ptr [rax]
	mov	byte ptr [rsp + 39], al
	cmp	al, -128
	jb	.LBB32_5
	jmp	.LBB32_4
.LBB32_3:
	.cv_loc	81 28 113 0
	jmp	.LBB32_19
.LBB32_4:
	.cv_loc	81 28 94 0
	mov	rcx, qword ptr [rsp + 40]
.Ltmp271:
	call	_ZN106_$LT$core..slice..iter..Iter$LT$T$GT$$u20$as$u20$core..iter..traits..double_ended..DoubleEndedIterator$GT$9next_back17ha601cc7ebcefb9c8E
	mov	qword ptr [rsp + 80], rax
.Ltmp272:
	.cv_inline_site_id 84 within 81 inlined_at 28 94 0
	.cv_loc	84 2 1068 0
	mov	rdx, qword ptr [rsp + 80]
	mov	eax, 1
	xor	ecx, ecx
	cmp	rdx, 0
	cmove	rax, rcx
	cmp	rax, 0
	je	.LBB32_6
	jmp	.LBB32_7
.Ltmp273:
.LBB32_5:
	.cv_loc	81 28 85 0
	mov	al, byte ptr [rsp + 39]
.Ltmp274:
	movzx	eax, al
	mov	dword ptr [rsp + 52], eax
	mov	dword ptr [rsp + 48], 1
.Ltmp275:
	.cv_loc	81 9 1 0
	jmp	.LBB32_3
.LBB32_6:
.Ltmp276:
	.cv_inline_site_id 85 within 84 inlined_at 2 1071 0
	.cv_loc	85 3 75 0
	call	_ZN4core4hint21unreachable_unchecked18precondition_check17h1cfe469db0b0df09E
	jmp	.LBB32_8
.Ltmp277:
.LBB32_7:
	.cv_loc	84 2 1069 0
	mov	rax, qword ptr [rsp + 80]
.Ltmp278:
	.cv_loc	81 28 94 0
	mov	al, byte ptr [rax]
	mov	byte ptr [rsp + 38], al
.Ltmp279:
	.cv_inline_site_id 86 within 81 inlined_at 28 95 0
	.cv_loc	86 28 12 0
	mov	cl, al
	and	cl, 31
	movzx	ecx, cl
.Ltmp280:
	.cv_loc	81 28 95 0
	mov	dword ptr [rsp + 76], ecx
.Ltmp281:
	.cv_inline_site_id 87 within 81 inlined_at 28 96 0
	.cv_loc	87 28 25 0
	cmp	al, -64
.Ltmp282:
	.cv_loc	81 28 96 0
	jl	.LBB32_10
	jmp	.LBB32_9
.Ltmp283:
.LBB32_8:
	.cv_loc	81 28 84 0
	ud2
.LBB32_9:
.Ltmp284:
	.cv_loc	81 28 96 0
	jmp	.LBB32_11
.LBB32_10:
	.cv_loc	81 28 99 0
	mov	rcx, qword ptr [rsp + 40]
	call	_ZN106_$LT$core..slice..iter..Iter$LT$T$GT$$u20$as$u20$core..iter..traits..double_ended..DoubleEndedIterator$GT$9next_back17ha601cc7ebcefb9c8E
	mov	qword ptr [rsp + 88], rax
.Ltmp285:
	.cv_inline_site_id 88 within 81 inlined_at 28 99 0
	.cv_loc	88 2 1068 0
	mov	rdx, qword ptr [rsp + 88]
	mov	eax, 1
	xor	ecx, ecx
	cmp	rdx, 0
	cmove	rax, rcx
	cmp	rax, 0
	je	.LBB32_12
	jmp	.LBB32_13
.Ltmp286:
.LBB32_11:
	.cv_loc	81 28 110 0
	mov	cl, byte ptr [rsp + 39]
	mov	eax, dword ptr [rsp + 76]
.Ltmp287:
	.cv_inline_site_id 89 within 81 inlined_at 28 110 0
	.cv_loc	89 28 18 0
	shl	eax, 6
	and	cl, 63
	movzx	ecx, cl
	or	eax, ecx
.Ltmp288:
	.cv_loc	81 28 110 0
	mov	dword ptr [rsp + 76], eax
	.cv_loc	81 28 112 0
	mov	eax, dword ptr [rsp + 76]
	mov	dword ptr [rsp + 52], eax
	mov	dword ptr [rsp + 48], 1
.Ltmp289:
	.cv_loc	81 28 113 0
	jmp	.LBB32_19
.LBB32_12:
.Ltmp290:
	.cv_inline_site_id 90 within 88 inlined_at 2 1071 0
	.cv_loc	90 3 75 0
	call	_ZN4core4hint21unreachable_unchecked18precondition_check17h1cfe469db0b0df09E
	jmp	.LBB32_8
.Ltmp291:
.LBB32_13:
	.cv_loc	88 2 1069 0
	mov	rax, qword ptr [rsp + 88]
.Ltmp292:
	.cv_loc	81 28 99 0
	mov	al, byte ptr [rax]
	mov	byte ptr [rsp + 37], al
.Ltmp293:
	.cv_inline_site_id 91 within 81 inlined_at 28 100 0
	.cv_loc	91 28 12 0
	mov	cl, al
	and	cl, 15
	movzx	ecx, cl
.Ltmp294:
	.cv_loc	81 28 100 0
	mov	dword ptr [rsp + 76], ecx
.Ltmp295:
	.cv_inline_site_id 92 within 81 inlined_at 28 101 0
	.cv_loc	92 28 25 0
	cmp	al, -64
.Ltmp296:
	.cv_loc	81 28 101 0
	jl	.LBB32_15
	jmp	.LBB32_16
.LBB32_15:
	.cv_loc	81 28 104 0
	mov	rcx, qword ptr [rsp + 40]
	call	_ZN106_$LT$core..slice..iter..Iter$LT$T$GT$$u20$as$u20$core..iter..traits..double_ended..DoubleEndedIterator$GT$9next_back17ha601cc7ebcefb9c8E
	mov	qword ptr [rsp + 96], rax
.Ltmp297:
	.cv_inline_site_id 93 within 81 inlined_at 28 104 0
	.cv_loc	93 2 1068 0
	mov	rdx, qword ptr [rsp + 96]
	mov	eax, 1
	xor	ecx, ecx
	cmp	rdx, 0
	cmove	rax, rcx
	cmp	rax, 0
	je	.LBB32_17
	jmp	.LBB32_18
.Ltmp298:
.LBB32_16:
	.cv_loc	81 28 108 0
	mov	cl, byte ptr [rsp + 38]
	mov	eax, dword ptr [rsp + 76]
.Ltmp299:
	.cv_inline_site_id 94 within 81 inlined_at 28 108 0
	.cv_loc	94 28 18 0
	shl	eax, 6
	and	cl, 63
	movzx	ecx, cl
	or	eax, ecx
.Ltmp300:
	.cv_loc	81 28 108 0
	mov	dword ptr [rsp + 76], eax
.Ltmp301:
	.cv_loc	81 28 96 0
	jmp	.LBB32_11
.LBB32_17:
.Ltmp302:
	.cv_inline_site_id 95 within 93 inlined_at 2 1071 0
	.cv_loc	95 3 75 0
	call	_ZN4core4hint21unreachable_unchecked18precondition_check17h1cfe469db0b0df09E
	jmp	.LBB32_8
.Ltmp303:
.LBB32_18:
	.cv_loc	93 2 1069 0
	mov	cl, byte ptr [rsp + 37]
	mov	rax, qword ptr [rsp + 96]
.Ltmp304:
	.cv_loc	81 28 104 0
	mov	al, byte ptr [rax]
.Ltmp305:
	.cv_inline_site_id 96 within 81 inlined_at 28 105 0
	.cv_loc	96 28 12 0
	and	al, 7
	movzx	eax, al
.Ltmp306:
	.cv_loc	81 28 105 0
	mov	dword ptr [rsp + 76], eax
	.cv_loc	81 28 106 0
	mov	eax, dword ptr [rsp + 76]
.Ltmp307:
	.cv_inline_site_id 97 within 81 inlined_at 28 106 0
	.cv_loc	97 28 18 0
	shl	eax, 6
	and	cl, 63
	movzx	ecx, cl
	or	eax, ecx
.Ltmp308:
	.cv_loc	81 28 106 0
	mov	dword ptr [rsp + 76], eax
.Ltmp309:
	.cv_loc	81 28 101 0
	jmp	.LBB32_16
.Ltmp310:
.LBB32_19:
	.cv_loc	81 28 113 0
	mov	eax, dword ptr [rsp + 48]
	mov	edx, dword ptr [rsp + 52]
	add	rsp, 104
	ret
.Ltmp311:
.Lfunc_end32:
	.seh_endproc

	.def	_ZN4core3str21_$LT$impl$u20$str$GT$12trim_matches17h0ae1288e41152ec6E;
	.scl	3;
	.type	32;
	.endef
	.section	.text,"xr",one_only,_ZN4core3str21_$LT$impl$u20$str$GT$12trim_matches17h0ae1288e41152ec6E
	.p2align	4, 0x90
_ZN4core3str21_$LT$impl$u20$str$GT$12trim_matches17h0ae1288e41152ec6E:
.Lfunc_begin33:
	.cv_func_id 98
	.cv_loc	98 17 2125 0
.seh_proc _ZN4core3str21_$LT$impl$u20$str$GT$12trim_matches17h0ae1288e41152ec6E
	.seh_handler __CxxFrameHandler3, @unwind, @except
	push	rbp
	.seh_pushreg rbp
	sub	rsp, 192
	.seh_stackalloc 192
	lea	rbp, [rsp + 128]
	.seh_setframe rbp, 128
	.seh_endprologue
	mov	qword ptr [rbp + 56], -2
	mov	r8, rdx
	mov	qword ptr [rbp - 72], r8
	mov	rdx, rcx
	mov	qword ptr [rbp - 64], rdx
.Ltmp316:
	.cv_loc	98 17 2129 0
	mov	qword ptr [rbp - 48], 0
.Ltmp317:
	.cv_loc	98 17 2130 0
	mov	qword ptr [rbp - 40], 0
	lea	rcx, [rbp - 32]
	mov	qword ptr [rbp - 56], rcx
.Ltmp318:
	.cv_loc	98 17 2131 0
	call	_ZN49_$LT$F$u20$as$u20$core..str..pattern..Pattern$GT$13into_searcher17hb796f3299bfd2887E
	mov	rdx, qword ptr [rbp - 56]
	.cv_loc	98 17 2132 0
.Ltmp312:
	lea	rcx, [rbp + 8]
.Ltmp319:
	call	_ZN99_$LT$core..str..pattern..CharPredicateSearcher$LT$F$GT$$u20$as$u20$core..str..pattern..Searcher$GT$11next_reject17h7d595163d7d67840E
.Ltmp313:
	jmp	.LBB33_2
.LBB33_2:
	cmp	qword ptr [rbp + 8], 1
	jne	.LBB33_4
	mov	rcx, qword ptr [rbp + 16]
	mov	rax, qword ptr [rbp + 24]
	.cv_loc	98 17 2133 0
	mov	qword ptr [rbp - 48], rcx
	.cv_loc	98 17 2134 0
	mov	qword ptr [rbp - 40], rax
.Ltmp320:
.LBB33_4:
	.cv_loc	98 17 2137 0
.Ltmp314:
	lea	rcx, [rbp + 32]
	lea	rdx, [rbp - 32]
.Ltmp321:
	call	_ZN106_$LT$core..str..pattern..CharPredicateSearcher$LT$F$GT$$u20$as$u20$core..str..pattern..ReverseSearcher$GT$16next_reject_back17hc90f71ae8b6c5b39E
.Ltmp315:
	jmp	.LBB33_5
.LBB33_5:
	cmp	qword ptr [rbp + 32], 1
	jne	.LBB33_7
	mov	rax, qword ptr [rbp + 48]
	.cv_loc	98 17 2138 0
	mov	qword ptr [rbp - 40], rax
.Ltmp322:
.LBB33_7:
	.cv_loc	98 17 2141 0
	mov	r8, qword ptr [rbp - 72]
	mov	rcx, qword ptr [rbp - 48]
	mov	qword ptr [rbp - 80], rcx
	mov	rdx, qword ptr [rbp - 40]
	mov	qword ptr [rbp - 88], rdx
.Ltmp323:
	.cv_inline_site_id 99 within 98 inlined_at 17 2141 0
	.cv_inline_site_id 100 within 99 inlined_at 17 503 0
	.cv_loc	100 3 75 0
	call	_ZN4core3str6traits108_$LT$impl$u20$core..slice..index..SliceIndex$LT$str$GT$$u20$for$u20$core..ops..range..Range$LT$usize$GT$$GT$13get_unchecked18precondition_check17h66f57cf5800deb66E
	mov	rdx, qword ptr [rbp - 88]
	mov	rax, qword ptr [rbp - 64]
	mov	rcx, qword ptr [rbp - 80]
	.cv_file	29 "/rustc/e9e6e2e444c30c23a9c878a88fbc3978c2acad95\\library\\core\\src\\str\\traits.rs" "47F9953700FECEB009F12663C446EC1523AC5E9B12DF035577E55A7D4BFC4F2D" 3
	.cv_loc	100 29 215 0
	sub	rdx, rcx
.Ltmp324:
	.cv_inline_site_id 101 within 100 inlined_at 29 216 0
	.cv_loc	101 7 1007 0
	add	rax, rcx
.Ltmp325:
	.cv_loc	98 17 2142 0
	add	rsp, 192
	pop	rbp
	ret
	.seh_handlerdata
	.long	($cppxdata$_ZN4core3str21_$LT$impl$u20$str$GT$12trim_matches17h0ae1288e41152ec6E)@IMGREL
	.section	.text,"xr",one_only,_ZN4core3str21_$LT$impl$u20$str$GT$12trim_matches17h0ae1288e41152ec6E
	.seh_endproc
	.def	"?dtor$1@?0?_ZN4core3str21_$LT$impl$u20$str$GT$12trim_matches17h0ae1288e41152ec6E@4HA";
	.scl	3;
	.type	32;
	.endef
	.p2align	4, 0x90
"?dtor$1@?0?_ZN4core3str21_$LT$impl$u20$str$GT$12trim_matches17h0ae1288e41152ec6E@4HA":
.seh_proc "?dtor$1@?0?_ZN4core3str21_$LT$impl$u20$str$GT$12trim_matches17h0ae1288e41152ec6E@4HA"
.LBB33_1:
	mov	qword ptr [rsp + 16], rdx
	push	rbp
	.seh_pushreg rbp
	sub	rsp, 32
	.seh_stackalloc 32
	lea	rbp, [rdx + 128]
	.seh_endprologue
	.cv_loc	98 17 2125 0
	add	rsp, 32
	pop	rbp
	ret
.Ltmp326:
.Lfunc_end33:
	.seh_handlerdata
	.section	.text,"xr",one_only,_ZN4core3str21_$LT$impl$u20$str$GT$12trim_matches17h0ae1288e41152ec6E
	.seh_endproc
	.section	.xdata,"dr",associative,_ZN4core3str21_$LT$impl$u20$str$GT$12trim_matches17h0ae1288e41152ec6E
	.p2align	2, 0x0
$cppxdata$_ZN4core3str21_$LT$impl$u20$str$GT$12trim_matches17h0ae1288e41152ec6E:
	.long	429065506
	.long	1
	.long	($stateUnwindMap$_ZN4core3str21_$LT$impl$u20$str$GT$12trim_matches17h0ae1288e41152ec6E)@IMGREL
	.long	0
	.long	0
	.long	3
	.long	($ip2state$_ZN4core3str21_$LT$impl$u20$str$GT$12trim_matches17h0ae1288e41152ec6E)@IMGREL
	.long	184
	.long	0
	.long	1
$stateUnwindMap$_ZN4core3str21_$LT$impl$u20$str$GT$12trim_matches17h0ae1288e41152ec6E:
	.long	-1
	.long	"?dtor$1@?0?_ZN4core3str21_$LT$impl$u20$str$GT$12trim_matches17h0ae1288e41152ec6E@4HA"@IMGREL
$ip2state$_ZN4core3str21_$LT$impl$u20$str$GT$12trim_matches17h0ae1288e41152ec6E:
	.long	.Lfunc_begin33@IMGREL
	.long	-1
	.long	.Ltmp312@IMGREL+1
	.long	0
	.long	.Ltmp315@IMGREL+1
	.long	-1
	.section	.text,"xr",one_only,_ZN4core3str21_$LT$impl$u20$str$GT$12trim_matches17h0ae1288e41152ec6E

	.def	_ZN4core3str21_$LT$impl$u20$str$GT$4trim17h387798244de27668E;
	.scl	3;
	.type	32;
	.endef
	.section	.text,"xr",one_only,_ZN4core3str21_$LT$impl$u20$str$GT$4trim17h387798244de27668E
	.p2align	4, 0x90
_ZN4core3str21_$LT$impl$u20$str$GT$4trim17h387798244de27668E:
.Lfunc_begin34:
	.cv_func_id 102
	.cv_loc	102 17 1934 0
.seh_proc _ZN4core3str21_$LT$impl$u20$str$GT$4trim17h387798244de27668E
	sub	rsp, 40
	.seh_stackalloc 40
	.seh_endprologue
.Ltmp327:
	.cv_loc	102 17 1935 0
	call	_ZN4core3str21_$LT$impl$u20$str$GT$12trim_matches17h0ae1288e41152ec6E
	.cv_loc	102 17 1936 0
	nop
	add	rsp, 40
	ret
.Ltmp328:
.Lfunc_end34:
	.seh_endproc

	.def	_ZN4core3str21_$LT$impl$u20$str$GT$4trim28_$u7b$$u7b$closure$u7d$$u7d$17h243932ca0542c24fE;
	.scl	3;
	.type	32;
	.endef
	.section	.text,"xr",one_only,_ZN4core3str21_$LT$impl$u20$str$GT$4trim28_$u7b$$u7b$closure$u7d$$u7d$17h243932ca0542c24fE
	.p2align	4, 0x90
_ZN4core3str21_$LT$impl$u20$str$GT$4trim28_$u7b$$u7b$closure$u7d$$u7d$17h243932ca0542c24fE:
.Lfunc_begin35:
	.cv_func_id 103
	.cv_loc	103 17 1935 0
.seh_proc _ZN4core3str21_$LT$impl$u20$str$GT$4trim28_$u7b$$u7b$closure$u7d$$u7d$17h243932ca0542c24fE
	sub	rsp, 40
	.seh_stackalloc 40
	.seh_endprologue
	mov	dword ptr [rsp + 32], edx
.Ltmp329:
	.cv_inline_site_id 104 within 103 inlined_at 17 1935 0
	.cv_loc	104 4 860 0
	cmp	edx, 32
	jne	.LBB35_2
.LBB35_1:
	.cv_loc	104 4 861 0
	mov	byte ptr [rsp + 39], 1
	jmp	.LBB35_8
.LBB35_2:
	mov	ecx, dword ptr [rsp + 32]
	mov	eax, 9
	cmp	eax, ecx
	jbe	.LBB35_4
.LBB35_3:
	.cv_loc	104 4 862 0
	mov	eax, dword ptr [rsp + 32]
.Ltmp330:
	cmp	eax, 127
	ja	.LBB35_6
	jmp	.LBB35_5
.Ltmp331:
.LBB35_4:
	.cv_loc	104 4 861 0
	mov	eax, dword ptr [rsp + 32]
	cmp	eax, 13
	jbe	.LBB35_1
	jmp	.LBB35_3
.LBB35_5:
.Ltmp332:
	.cv_loc	104 4 862 0
	mov	byte ptr [rsp + 39], 0
	jmp	.LBB35_7
.LBB35_6:
	mov	ecx, dword ptr [rsp + 32]
	call	_ZN4core7unicode12unicode_data11white_space6lookup17h57b715c17568988bE
	and	al, 1
	mov	byte ptr [rsp + 39], al
.Ltmp333:
.LBB35_7:
	.cv_loc	104 4 862 0
	jmp	.LBB35_8
.Ltmp334:
.LBB35_8:
	.cv_loc	103 17 1935 0
	mov	al, byte ptr [rsp + 39]
	and	al, 1
	movzx	eax, al
	add	rsp, 40
	ret
.Ltmp335:
.Lfunc_end35:
	.seh_endproc

	.def	_ZN4core3str21_$LT$impl$u20$str$GT$5chars17h3fa49c4a3af82549E;
	.scl	3;
	.type	32;
	.endef
	.section	.text,"xr",one_only,_ZN4core3str21_$LT$impl$u20$str$GT$5chars17h3fa49c4a3af82549E
	.p2align	4, 0x90
_ZN4core3str21_$LT$impl$u20$str$GT$5chars17h3fa49c4a3af82549E:
.Lfunc_begin36:
	.cv_func_id 105
	.cv_loc	105 17 853 0
.seh_proc _ZN4core3str21_$LT$impl$u20$str$GT$5chars17h3fa49c4a3af82549E
	push	rax
	.seh_stackalloc 8
	.seh_endprologue
	mov	qword ptr [rsp], rdx
	mov	rax, rcx
	mov	rcx, qword ptr [rsp]
.Ltmp336:
	.cv_inline_site_id 106 within 105 inlined_at 17 854 0
	.cv_inline_site_id 107 within 106 inlined_at 18 1030 0
	.cv_inline_site_id 108 within 107 inlined_at 19 98 0
	.cv_loc	108 11 1149 0
	mov	rdx, rax
	add	rdx, rcx
.Ltmp337:
	.cv_loc	105 17 855 0
	pop	rcx
	ret
.Ltmp338:
.Lfunc_end36:
	.seh_endproc

	.def	_ZN4core3str6traits108_$LT$impl$u20$core..slice..index..SliceIndex$LT$str$GT$$u20$for$u20$core..ops..range..Range$LT$usize$GT$$GT$13get_unchecked18precondition_check17h66f57cf5800deb66E;
	.scl	3;
	.type	32;
	.endef
	.section	.text,"xr",one_only,_ZN4core3str6traits108_$LT$impl$u20$core..slice..index..SliceIndex$LT$str$GT$$u20$for$u20$core..ops..range..Range$LT$usize$GT$$GT$13get_unchecked18precondition_check17h66f57cf5800deb66E
	.p2align	4, 0x90
_ZN4core3str6traits108_$LT$impl$u20$core..slice..index..SliceIndex$LT$str$GT$$u20$for$u20$core..ops..range..Range$LT$usize$GT$$GT$13get_unchecked18precondition_check17h66f57cf5800deb66E:
.Lfunc_begin37:
	.cv_func_id 109
	.cv_loc	109 3 66 0
.seh_proc _ZN4core3str6traits108_$LT$impl$u20$core..slice..index..SliceIndex$LT$str$GT$$u20$for$u20$core..ops..range..Range$LT$usize$GT$$GT$13get_unchecked18precondition_check17h66f57cf5800deb66E
	sub	rsp, 56
	.seh_stackalloc 56
	.seh_endprologue
	mov	qword ptr [rsp + 40], r8
	mov	qword ptr [rsp + 48], rdx
.Ltmp339:
	.cv_loc	109 29 209 0
	cmp	rdx, rcx
	jae	.LBB37_2
.LBB37_1:
	.cv_loc	109 3 68 0
	lea	rcx, [rip + __unnamed_11]
	mov	edx, 102
	call	_ZN4core9panicking14panic_nounwind17h11d08e774c01f380E
.LBB37_2:
	.cv_loc	109 29 209 0
	mov	rax, qword ptr [rsp + 48]
	mov	rcx, qword ptr [rsp + 40]
	cmp	rax, rcx
	ja	.LBB37_1
	.cv_loc	109 3 72 0
	add	rsp, 56
	ret
.Ltmp340:
.Lfunc_end37:
	.seh_endproc

	.def	_ZN4core4char7convert18from_u32_unchecked18precondition_check17hbad4979217a856c2E;
	.scl	3;
	.type	32;
	.endef
	.section	.text,"xr",one_only,_ZN4core4char7convert18from_u32_unchecked18precondition_check17hbad4979217a856c2E
	.p2align	4, 0x90
_ZN4core4char7convert18from_u32_unchecked18precondition_check17hbad4979217a856c2E:
.Lfunc_begin38:
	.cv_func_id 110
	.cv_loc	110 3 66 0
.seh_proc _ZN4core4char7convert18from_u32_unchecked18precondition_check17hbad4979217a856c2E
	sub	rsp, 40
	.seh_stackalloc 40
	.seh_endprologue
	mov	eax, ecx
	mov	dword ptr [rsp + 32], eax
.Ltmp341:
	.cv_file	30 "/rustc/e9e6e2e444c30c23a9c878a88fbc3978c2acad95\\library\\core\\src\\char\\convert.rs" "19E0DCFC6E51C9A5A9F7252DA4F446A42C58DC79FDDEA4405EB723620D76F8F2" 3
	.cv_inline_site_id 111 within 110 inlined_at 30 30 0
	.cv_loc	111 30 246 0
	xor	eax, 55296
.Ltmp342:
	.cv_inline_site_id 112 within 111 inlined_at 30 246 0
	.cv_loc	112 25 1802 0
	sub	eax, 2048
.Ltmp343:
	.cv_loc	111 30 246 0
	cmp	eax, 1112064
	jae	.LBB38_2
	.cv_loc	111 30 250 0
	mov	eax, dword ptr [rsp + 32]
	mov	dword ptr [rsp + 36], eax
	.cv_loc	111 30 246 0
	jmp	.LBB38_3
.LBB38_2:
	.cv_loc	111 30 247 0
	mov	dword ptr [rsp + 36], 1114112
.Ltmp344:
.LBB38_3:
	.cv_file	31 "/rustc/e9e6e2e444c30c23a9c878a88fbc3978c2acad95\\library\\core\\src\\result.rs" "852DDB704313A0D9CE03F5E04A88316F578BC22B744E7EC111E07A7ADA3BB861" 3
	.cv_loc	111 31 564 0
	xor	eax, eax
	mov	ecx, 1
	cmp	dword ptr [rsp + 36], 1114112
	cmove	rax, rcx
	.cv_file	32 "/rustc/e9e6e2e444c30c23a9c878a88fbc3978c2acad95\\library\\core\\src\\macros\\mod.rs" "849C0B96B0E0E6608A473E27537A36437CB6456169BEEF9EE0B9E9AA7F947DDB" 3
	.cv_loc	111 32 457 0
	cmp	rax, 0
	jne	.LBB38_5
.Ltmp345:
	.cv_loc	110 3 72 0
	add	rsp, 40
	ret
.LBB38_5:
	.cv_loc	110 3 68 0
	lea	rcx, [rip + __unnamed_12]
	mov	edx, 57
	call	_ZN4core9panicking14panic_nounwind17h11d08e774c01f380E
	int3
.Ltmp346:
.Lfunc_end38:
	.seh_endproc

	.def	_ZN4core4hint21unreachable_unchecked18precondition_check17h1cfe469db0b0df09E;
	.scl	3;
	.type	32;
	.endef
	.section	.text,"xr",one_only,_ZN4core4hint21unreachable_unchecked18precondition_check17h1cfe469db0b0df09E
	.p2align	4, 0x90
_ZN4core4hint21unreachable_unchecked18precondition_check17h1cfe469db0b0df09E:
.Lfunc_begin39:
	.cv_func_id 113
	.cv_loc	113 3 66 0
.seh_proc _ZN4core4hint21unreachable_unchecked18precondition_check17h1cfe469db0b0df09E
	sub	rsp, 40
	.seh_stackalloc 40
	.seh_endprologue
.Ltmp347:
	.cv_loc	113 3 68 0
	lea	rcx, [rip + __unnamed_13]
	mov	edx, 82
	call	_ZN4core9panicking14panic_nounwind17h11d08e774c01f380E
	int3
.Ltmp348:
.Lfunc_end39:
	.seh_endproc

	.def	_ZN4core5slice3raw14from_raw_parts18precondition_check17he0275c4e31485463E;
	.scl	3;
	.type	32;
	.endef
	.section	.text,"xr",one_only,_ZN4core5slice3raw14from_raw_parts18precondition_check17he0275c4e31485463E
	.p2align	4, 0x90
_ZN4core5slice3raw14from_raw_parts18precondition_check17he0275c4e31485463E:
.Lfunc_begin40:
	.cv_func_id 114
	.cv_loc	114 3 66 0
.seh_proc _ZN4core5slice3raw14from_raw_parts18precondition_check17he0275c4e31485463E
	.seh_handler __CxxFrameHandler3, @unwind, @except
	push	rbp
	.seh_pushreg rbp
	sub	rsp, 144
	.seh_stackalloc 144
	lea	rbp, [rsp + 128]
	.seh_setframe rbp, 128
	.seh_endprologue
	mov	qword ptr [rbp + 8], -2
	mov	qword ptr [rbp - 88], r9
	mov	qword ptr [rbp - 80], r8
	mov	qword ptr [rbp - 72], rdx
	mov	qword ptr [rbp - 64], rcx
.Ltmp353:
	.cv_file	33 "/rustc/e9e6e2e444c30c23a9c878a88fbc3978c2acad95\\library\\core\\src\\slice\\raw.rs" "244D268A3ACC09BC7C042CF843DAA4F6E35DB72FDE4BC9EFE02CBD29FCB3416F" 3
	.cv_inline_site_id 115 within 114 inlined_at 33 137 0
	.cv_loc	115 3 119 0
	cmp	rcx, 0
	jne	.LBB40_2
.Ltmp354:
	.cv_loc	114 33 137 0
	jmp	.LBB40_3
.LBB40_2:
	.cv_inline_site_id 116 within 115 inlined_at 3 119 0
	.cv_inline_site_id 117 within 116 inlined_at 7 1675 0
	.cv_inline_site_id 118 within 117 inlined_at 25 2811 0
	.cv_loc	118 25 79 0
	mov	rcx, qword ptr [rbp - 80]
.Ltmp355:
	mov	rax, rcx
	shr	rax
	movabs	rdx, 6148914691236517205
	and	rax, rdx
	sub	rcx, rax
	movabs	rdx, 3689348814741910323
	mov	rax, rcx
	and	rax, rdx
	shr	rcx, 2
	and	rcx, rdx
	add	rax, rcx
	mov	rcx, rax
	shr	rcx, 4
	add	rax, rcx
	movabs	rcx, 1085102592571150095
	and	rax, rcx
	movabs	rcx, 72340172838076673
	imul	rax, rcx
	shr	rax, 56
	mov	dword ptr [rbp + 4], eax
.Ltmp356:
	.cv_loc	116 7 1675 0
	cmp	dword ptr [rbp + 4], 1
	je	.LBB40_4
	jmp	.LBB40_5
.Ltmp357:
.LBB40_3:
	.cv_loc	114 9 1 0
	jmp	.LBB40_7
.LBB40_4:
	.cv_inline_site_id 119 within 116 inlined_at 7 1693 0
	.cv_loc	119 7 1681 0
	mov	rax, qword ptr [rbp - 64]
	mov	rcx, qword ptr [rbp - 80]
.Ltmp358:
	sub	rcx, 1
	and	rax, rcx
	cmp	rax, 0
.Ltmp359:
	.cv_loc	114 33 137 0
	je	.LBB40_6
	jmp	.LBB40_3
.LBB40_5:
.Ltmp360:
	.cv_file	34 "/rustc/e9e6e2e444c30c23a9c878a88fbc3978c2acad95\\library\\core\\src\\panic.rs" "159478D636195A65038D571BC99D03453764B32B723BA2833A3E455DFFD3EC57" 3
	.cv_inline_site_id 120 within 116 inlined_at 34 108 0
	.cv_loc	120 22 343 0
	lea	rax, [rip + __unnamed_14]
	mov	qword ptr [rbp - 56], rax
	mov	qword ptr [rbp - 48], 1
	mov	qword ptr [rbp - 24], 0
	mov	qword ptr [rbp - 40], 8
	mov	qword ptr [rbp - 32], 0
.Ltmp361:
	.cv_loc	116 7 1676 0
.Ltmp349:
	lea	rdx, [rip + __unnamed_15]
	lea	rcx, [rbp - 56]
	call	_ZN4core9panicking9panic_fmt17h6aea775c407d2a15E
.Ltmp350:
	jmp	.LBB40_14
.Ltmp362:
.LBB40_6:
	.cv_inline_site_id 121 within 114 inlined_at 33 138 0
	.cv_loc	121 3 124 0
	mov	rax, qword ptr [rbp - 72]
.Ltmp363:
	cmp	rax, 0
	sete	cl
	mov	byte ptr [rbp - 89], cl
	cmp	rax, 0
	je	.LBB40_8
	jmp	.LBB40_9
.Ltmp364:
.LBB40_7:
	.cv_loc	114 3 68 0
	lea	rcx, [rip + __unnamed_16]
	mov	edx, 162
	call	_ZN4core9panicking14panic_nounwind17h11d08e774c01f380E
.LBB40_8:
.Ltmp365:
	.cv_loc	121 3 124 0
	mov	qword ptr [rbp - 8], -1
	jmp	.LBB40_10
.LBB40_9:
	mov	al, byte ptr [rbp - 89]
	test	al, 1
	jne	.LBB40_12
	jmp	.LBB40_11
.LBB40_10:
	.cv_loc	121 3 125 0
	mov	rax, qword ptr [rbp - 88]
.Ltmp366:
	cmp	rax, qword ptr [rbp - 8]
.Ltmp367:
	.cv_loc	114 33 138 0
	jbe	.LBB40_16
	jmp	.LBB40_15
.LBB40_11:
	.cv_loc	121 3 124 0
	mov	rcx, qword ptr [rbp - 72]
.Ltmp368:
	movabs	rax, 9223372036854775807
	xor	edx, edx
	div	rcx
	mov	qword ptr [rbp - 8], rax
	jmp	.LBB40_10
.LBB40_12:
.Ltmp351:
	lea	rcx, [rip + __unnamed_17]
	call	_ZN4core9panicking11panic_const23panic_const_div_by_zero17h78eea78a6939edf3E
.Ltmp352:
	jmp	.LBB40_14
.Ltmp369:
.LBB40_14:
	ud2
.LBB40_15:
	.cv_loc	114 9 1 0
	jmp	.LBB40_7
.LBB40_16:
	.cv_loc	114 3 72 0
	add	rsp, 144
	pop	rbp
	ret
	.seh_handlerdata
	.long	($cppxdata$_ZN4core5slice3raw14from_raw_parts18precondition_check17he0275c4e31485463E)@IMGREL
	.section	.text,"xr",one_only,_ZN4core5slice3raw14from_raw_parts18precondition_check17he0275c4e31485463E
	.seh_endproc
	.def	"?catch$13@?0?_ZN4core5slice3raw14from_raw_parts18precondition_check17he0275c4e31485463E@4HA";
	.scl	3;
	.type	32;
	.endef
	.p2align	4, 0x90
"?catch$13@?0?_ZN4core5slice3raw14from_raw_parts18precondition_check17he0275c4e31485463E@4HA":
.seh_proc "?catch$13@?0?_ZN4core5slice3raw14from_raw_parts18precondition_check17he0275c4e31485463E@4HA"
	.seh_handler __CxxFrameHandler3, @unwind, @except
.LBB40_13:
	mov	qword ptr [rsp + 16], rdx
	push	rbp
	.seh_pushreg rbp
	sub	rsp, 32
	.seh_stackalloc 32
	lea	rbp, [rdx + 128]
	.seh_endprologue
	.cv_loc	114 3 66 0
	call	_ZN4core9panicking19panic_cannot_unwind17h027b91c2a3379ae5E
	int3
.Ltmp370:
.Lfunc_end40:
	.seh_handlerdata
	.long	($cppxdata$_ZN4core5slice3raw14from_raw_parts18precondition_check17he0275c4e31485463E)@IMGREL
	.section	.text,"xr",one_only,_ZN4core5slice3raw14from_raw_parts18precondition_check17he0275c4e31485463E
	.seh_endproc
	.section	.xdata,"dr",associative,_ZN4core5slice3raw14from_raw_parts18precondition_check17he0275c4e31485463E
	.p2align	2, 0x0
$cppxdata$_ZN4core5slice3raw14from_raw_parts18precondition_check17he0275c4e31485463E:
	.long	429065506
	.long	2
	.long	($stateUnwindMap$_ZN4core5slice3raw14from_raw_parts18precondition_check17he0275c4e31485463E)@IMGREL
	.long	1
	.long	($tryMap$_ZN4core5slice3raw14from_raw_parts18precondition_check17he0275c4e31485463E)@IMGREL
	.long	4
	.long	($ip2state$_ZN4core5slice3raw14from_raw_parts18precondition_check17he0275c4e31485463E)@IMGREL
	.long	136
	.long	0
	.long	1
$stateUnwindMap$_ZN4core5slice3raw14from_raw_parts18precondition_check17he0275c4e31485463E:
	.long	-1
	.long	0
	.long	-1
	.long	0
$tryMap$_ZN4core5slice3raw14from_raw_parts18precondition_check17he0275c4e31485463E:
	.long	0
	.long	0
	.long	1
	.long	1
	.long	($handlerMap$0$_ZN4core5slice3raw14from_raw_parts18precondition_check17he0275c4e31485463E)@IMGREL
$handlerMap$0$_ZN4core5slice3raw14from_raw_parts18precondition_check17he0275c4e31485463E:
	.long	64
	.long	0
	.long	0
	.long	"?catch$13@?0?_ZN4core5slice3raw14from_raw_parts18precondition_check17he0275c4e31485463E@4HA"@IMGREL
	.long	56
$ip2state$_ZN4core5slice3raw14from_raw_parts18precondition_check17he0275c4e31485463E:
	.long	.Lfunc_begin40@IMGREL
	.long	-1
	.long	.Ltmp349@IMGREL+1
	.long	0
	.long	.Ltmp352@IMGREL+1
	.long	-1
	.long	"?catch$13@?0?_ZN4core5slice3raw14from_raw_parts18precondition_check17he0275c4e31485463E@4HA"@IMGREL
	.long	1
	.section	.text,"xr",one_only,_ZN4core5slice3raw14from_raw_parts18precondition_check17he0275c4e31485463E

	.def	_ZN4core5slice4iter13Iter$LT$T$GT$19next_back_unchecked17hadd6c9bd97dd23a3E;
	.scl	3;
	.type	32;
	.endef
	.section	.text,"xr",one_only,_ZN4core5slice4iter13Iter$LT$T$GT$19next_back_unchecked17hadd6c9bd97dd23a3E
	.p2align	4, 0x90
_ZN4core5slice4iter13Iter$LT$T$GT$19next_back_unchecked17hadd6c9bd97dd23a3E:
.Lfunc_begin41:
	.cv_func_id 122
	.cv_loc	122 5 80 0
.seh_proc _ZN4core5slice4iter13Iter$LT$T$GT$19next_back_unchecked17hadd6c9bd97dd23a3E
	sub	rsp, 72
	.seh_stackalloc 72
	.seh_endprologue
	mov	qword ptr [rsp + 48], rcx
	.cv_inline_site_id 123 within 122 inlined_at 5 83 0
	.cv_loc	123 27 2296 0
	mov	rax, qword ptr [rsp + 48]
.Ltmp371:
	mov	rcx, rax
	add	rcx, 8
	mov	qword ptr [rsp + 32], rcx
.Ltmp372:
	.cv_loc	123 5 131 0
	mov	rax, qword ptr [rax + 8]
	mov	qword ptr [rsp + 40], rax
.Ltmp373:
	.cv_inline_site_id 124 within 123 inlined_at 5 131 0
	.cv_inline_site_id 125 within 124 inlined_at 6 716 0
	.cv_loc	125 3 74 0
	jmp	.LBB41_3
.LBB41_3:
	.cv_loc	125 3 75 0
	mov	ecx, 1
	call	_ZN4core3num23_$LT$impl$u20$isize$GT$13unchecked_neg18precondition_check17hd372d55880fa8095E
.Ltmp374:
	.cv_loc	125 6 538 0
	mov	rax, qword ptr [rsp + 40]
.Ltmp375:
	add	rax, -1
	mov	qword ptr [rsp + 64], rax
.Ltmp376:
	.cv_loc	123 5 131 0
	mov	rax, qword ptr [rsp + 32]
	mov	rcx, qword ptr [rsp + 64]
	mov	qword ptr [rax], rcx
	.cv_loc	123 5 132 0
	mov	rax, qword ptr [rax]
	mov	qword ptr [rsp + 56], rax
.Ltmp377:
	.cv_loc	123 6 402 0
	mov	rax, qword ptr [rsp + 56]
.Ltmp378:
	.cv_loc	122 5 84 0
	add	rsp, 72
	ret
.Ltmp379:
.Lfunc_end41:
	.seh_endproc

	.def	_ZN4core7unicode12unicode_data11white_space6lookup17h57b715c17568988bE;
	.scl	3;
	.type	32;
	.endef
	.section	.text,"xr",one_only,_ZN4core7unicode12unicode_data11white_space6lookup17h57b715c17568988bE
	.p2align	4, 0x90
_ZN4core7unicode12unicode_data11white_space6lookup17h57b715c17568988bE:
.Lfunc_begin42:
	.cv_func_id 126
	.cv_file	35 "/rustc/e9e6e2e444c30c23a9c878a88fbc3978c2acad95\\library\\core\\src\\unicode\\unicode_data.rs" "302C30EB80A4470D04D131D104C66BD35D26C881F8E8791FFB9336759E312303" 3
	.cv_loc	126 35 574 0
.seh_proc _ZN4core7unicode12unicode_data11white_space6lookup17h57b715c17568988bE
	sub	rsp, 72
	.seh_stackalloc 72
	.seh_endprologue
	mov	dword ptr [rsp + 60], ecx
.Ltmp380:
	.cv_loc	126 35 575 0
	shr	ecx, 8
	mov	dword ptr [rsp + 64], ecx
	test	ecx, ecx
	je	.LBB42_2
	jmp	.LBB42_11
.LBB42_11:
	mov	eax, dword ptr [rsp + 64]
	sub	eax, 22
	je	.LBB42_3
	jmp	.LBB42_12
.LBB42_12:
	mov	eax, dword ptr [rsp + 64]
	sub	eax, 32
	je	.LBB42_4
	jmp	.LBB42_13
.LBB42_13:
	mov	eax, dword ptr [rsp + 64]
	sub	eax, 48
	je	.LBB42_5
	jmp	.LBB42_1
.LBB42_1:
	.cv_loc	126 35 580 0
	mov	byte ptr [rsp + 71], 0
	jmp	.LBB42_8
.LBB42_2:
	.cv_loc	126 35 576 0
	mov	eax, dword ptr [rsp + 60]
	mov	eax, eax
	and	rax, 255
	mov	qword ptr [rsp + 48], rax
	cmp	rax, 256
	jb	.LBB42_6
	jmp	.LBB42_7
.LBB42_3:
	.cv_loc	126 35 577 0
	mov	eax, dword ptr [rsp + 60]
	cmp	eax, 5760
	sete	al
	and	al, 1
	mov	byte ptr [rsp + 71], al
	jmp	.LBB42_8
.LBB42_4:
	.cv_loc	126 35 578 0
	mov	eax, dword ptr [rsp + 60]
	mov	eax, eax
	and	rax, 255
	mov	qword ptr [rsp + 40], rax
	cmp	rax, 256
	jb	.LBB42_9
	jmp	.LBB42_10
.LBB42_5:
	.cv_loc	126 35 579 0
	mov	eax, dword ptr [rsp + 60]
	cmp	eax, 12288
	sete	al
	and	al, 1
	mov	byte ptr [rsp + 71], al
	jmp	.LBB42_8
.LBB42_6:
	.cv_loc	126 35 576 0
	mov	rcx, qword ptr [rsp + 48]
	mov	rax, qword ptr [rip + __imp__ZN4core7unicode12unicode_data11white_space14WHITESPACE_MAP17hfab353f6b76f9cadE]
	mov	al, byte ptr [rax + rcx]
	and	al, 1
	cmp	al, 0
	setne	al
	and	al, 1
	mov	byte ptr [rsp + 71], al
	jmp	.LBB42_8
.LBB42_7:
	mov	rcx, qword ptr [rsp + 48]
	lea	r8, [rip + __unnamed_18]
	mov	edx, 256
	call	_ZN4core9panicking18panic_bounds_check17h96e7a9be25e45ceaE
.LBB42_8:
	.cv_loc	126 35 582 0
	mov	al, byte ptr [rsp + 71]
	and	al, 1
	movzx	eax, al
	add	rsp, 72
	ret
.LBB42_9:
	.cv_loc	126 35 578 0
	mov	rcx, qword ptr [rsp + 40]
	mov	rax, qword ptr [rip + __imp__ZN4core7unicode12unicode_data11white_space14WHITESPACE_MAP17hfab353f6b76f9cadE]
	mov	al, byte ptr [rax + rcx]
	and	al, 2
	cmp	al, 0
	setne	al
	and	al, 1
	mov	byte ptr [rsp + 71], al
	jmp	.LBB42_8
.LBB42_10:
	mov	rcx, qword ptr [rsp + 40]
	lea	r8, [rip + __unnamed_19]
	mov	edx, 256
	call	_ZN4core9panicking18panic_bounds_check17h96e7a9be25e45ceaE
	int3
.Ltmp381:
.Lfunc_end42:
	.seh_endproc

	.def	_ZN53_$LT$F$u20$as$u20$core..str..pattern..MultiCharEq$GT$7matches17h271ac01a27f0d12dE;
	.scl	3;
	.type	32;
	.endef
	.section	.text,"xr",one_only,_ZN53_$LT$F$u20$as$u20$core..str..pattern..MultiCharEq$GT$7matches17h271ac01a27f0d12dE
	.p2align	4, 0x90
_ZN53_$LT$F$u20$as$u20$core..str..pattern..MultiCharEq$GT$7matches17h271ac01a27f0d12dE:
.Lfunc_begin43:
	.cv_func_id 127
	.cv_loc	127 8 619 0
.seh_proc _ZN53_$LT$F$u20$as$u20$core..str..pattern..MultiCharEq$GT$7matches17h271ac01a27f0d12dE
	sub	rsp, 40
	.seh_stackalloc 40
	.seh_endprologue
.Ltmp382:
	.cv_loc	127 8 620 0
	call	_ZN4core3str21_$LT$impl$u20$str$GT$4trim28_$u7b$$u7b$closure$u7d$$u7d$17h243932ca0542c24fE
	.cv_loc	127 8 621 0
	and	al, 1
	movzx	eax, al
	add	rsp, 40
	ret
.Ltmp383:
.Lfunc_end43:
	.seh_endproc

	.def	_ZN54_$LT$$LP$$RP$$u20$as$u20$std..process..Termination$GT$6report17hc2e8676efd37d04bE;
	.scl	3;
	.type	32;
	.endef
	.section	.text,"xr",one_only,_ZN54_$LT$$LP$$RP$$u20$as$u20$std..process..Termination$GT$6report17hc2e8676efd37d04bE
	.p2align	4, 0x90
_ZN54_$LT$$LP$$RP$$u20$as$u20$std..process..Termination$GT$6report17hc2e8676efd37d04bE:
.Lfunc_begin44:
	.cv_func_id 128
	.cv_loc	128 14 2442 0
	xor	eax, eax
	ret
.Ltmp384:
.Lfunc_end44:

	.def	_ZN5alloc6string6String3new17hada5df6aa4646845E;
	.scl	3;
	.type	32;
	.endef
	.section	.text,"xr",one_only,_ZN5alloc6string6String3new17hada5df6aa4646845E
	.p2align	4, 0x90
_ZN5alloc6string6String3new17hada5df6aa4646845E:
.Lfunc_begin45:
	.cv_func_id 129
	.cv_file	36 "/rustc/e9e6e2e444c30c23a9c878a88fbc3978c2acad95\\library\\alloc\\src\\string.rs" "C9CA04F9D7EE72660960D8F03798A3415C4B4D810307568B0DED7049998ECC48" 3
	.cv_loc	129 36 448 0
.seh_proc _ZN5alloc6string6String3new17hada5df6aa4646845E
	sub	rsp, 24
	.seh_stackalloc 24
	.seh_endprologue
	mov	rax, rcx
.Ltmp385:
	.cv_file	37 "/rustc/e9e6e2e444c30c23a9c878a88fbc3978c2acad95\\library\\alloc\\src\\vec\\mod.rs" "FD7BAA9FF36279B8685D3C43C5BF6917ADA16CC4F50ABB23DCD04E5A88CEAF35" 3
	.cv_inline_site_id 130 within 129 inlined_at 36 449 0
	.cv_loc	130 37 423 0
	mov	qword ptr [rsp], 0
	mov	edx, 1
	mov	qword ptr [rsp + 8], rdx
	mov	qword ptr [rsp + 16], 0
.Ltmp386:
	.cv_loc	129 36 449 0
	mov	rdx, qword ptr [rsp]
	mov	qword ptr [rcx], rdx
	mov	rdx, qword ptr [rsp + 8]
	mov	qword ptr [rcx + 8], rdx
	mov	rdx, qword ptr [rsp + 16]
	mov	qword ptr [rcx + 16], rdx
	.cv_loc	129 36 450 0
	add	rsp, 24
	ret
.Ltmp387:
.Lfunc_end45:
	.seh_endproc

	.def	_ZN5alloc7raw_vec19RawVec$LT$T$C$A$GT$14current_memory17h975dd4603b9d4f7aE;
	.scl	3;
	.type	32;
	.endef
	.section	.text,"xr",one_only,_ZN5alloc7raw_vec19RawVec$LT$T$C$A$GT$14current_memory17h975dd4603b9d4f7aE
	.p2align	4, 0x90
_ZN5alloc7raw_vec19RawVec$LT$T$C$A$GT$14current_memory17h975dd4603b9d4f7aE:
.Lfunc_begin46:
	.cv_func_id 131
	.cv_file	38 "/rustc/e9e6e2e444c30c23a9c878a88fbc3978c2acad95\\library\\alloc\\src\\raw_vec.rs" "8EE6D4C45E87CC292AD90C265B4E2A1CD966495956E44A2AEBD647C92009BFC7" 3
	.cv_loc	131 38 299 0
.seh_proc _ZN5alloc7raw_vec19RawVec$LT$T$C$A$GT$14current_memory17h975dd4603b9d4f7aE
	sub	rsp, 88
	.seh_stackalloc 88
	.seh_endprologue
	mov	qword ptr [rsp + 40], rdx
	mov	qword ptr [rsp + 48], rcx
	mov	qword ptr [rsp + 56], rcx
	.cv_loc	131 38 300 0
	mov	rax, qword ptr [rsp + 40]
.Ltmp388:
	cmp	qword ptr [rax], 0
	jne	.LBB46_3
	jmp	.LBB46_4
.LBB46_3:
	.cv_loc	131 38 310 0
	mov	rax, qword ptr [rsp + 40]
.Ltmp389:
	mov	rax, qword ptr [rax]
	mov	qword ptr [rsp + 32], rax
.Ltmp390:
	.cv_inline_site_id 132 within 131 inlined_at 38 310 0
	.cv_loc	132 3 74 0
	jmp	.LBB46_5
.Ltmp391:
.LBB46_4:
	.cv_loc	131 38 301 0
	mov	rax, qword ptr [rsp + 48]
	mov	qword ptr [rax + 8], 0
	.cv_loc	131 38 300 0
	jmp	.LBB46_7
.LBB46_5:
	.cv_loc	132 3 75 0
	mov	rdx, qword ptr [rsp + 32]
.Ltmp392:
	mov	ecx, 1
	call	_ZN4core3num23_$LT$impl$u20$usize$GT$13unchecked_mul18precondition_check17h4ac4ffa3e1e60b17E
	.cv_loc	132 25 831 0
	mov	rax, qword ptr [rsp + 48]
	mov	rdx, qword ptr [rsp + 40]
	mov	rcx, qword ptr [rsp + 32]
	shl	rcx, 0
.Ltmp393:
	.cv_loc	131 38 312 0
	mov	rdx, qword ptr [rdx + 8]
	mov	qword ptr [rsp + 64], rdx
	mov	qword ptr [rsp + 72], 1
	mov	qword ptr [rsp + 80], rcx
	mov	rcx, qword ptr [rsp + 64]
	mov	qword ptr [rax], rcx
	mov	rcx, qword ptr [rsp + 72]
	mov	qword ptr [rax + 8], rcx
	mov	rcx, qword ptr [rsp + 80]
	mov	qword ptr [rax + 16], rcx
.Ltmp394:
.LBB46_7:
	.cv_loc	131 38 315 0
	mov	rax, qword ptr [rsp + 56]
	add	rsp, 88
	ret
.Ltmp395:
.Lfunc_end46:
	.seh_endproc

	.def	_ZN63_$LT$alloc..alloc..Global$u20$as$u20$core..alloc..Allocator$GT$10deallocate17h774ba98abaabd79dE;
	.scl	3;
	.type	32;
	.endef
	.section	.text,"xr",one_only,_ZN63_$LT$alloc..alloc..Global$u20$as$u20$core..alloc..Allocator$GT$10deallocate17h774ba98abaabd79dE
	.p2align	4, 0x90
_ZN63_$LT$alloc..alloc..Global$u20$as$u20$core..alloc..Allocator$GT$10deallocate17h774ba98abaabd79dE:
.Lfunc_begin47:
	.cv_func_id 133
	.cv_file	39 "/rustc/e9e6e2e444c30c23a9c878a88fbc3978c2acad95\\library\\alloc\\src\\alloc.rs" "E404C9C93E37123AC41EE643BC9C4B4657CA737F5BCE2141CC40BB2CB68E939D" 3
	.cv_loc	133 39 252 0
.seh_proc _ZN63_$LT$alloc..alloc..Global$u20$as$u20$core..alloc..Allocator$GT$10deallocate17h774ba98abaabd79dE
	sub	rsp, 88
	.seh_stackalloc 88
	.seh_endprologue
	mov	qword ptr [rsp + 32], rdx
	mov	qword ptr [rsp + 48], r8
	mov	qword ptr [rsp + 56], r9
.Ltmp396:
	.cv_file	40 "/rustc/e9e6e2e444c30c23a9c878a88fbc3978c2acad95\\library\\core\\src\\alloc\\layout.rs" "26F2C53198E5FAC0D876391B1B38F0DDF8108B6F58834B4A079AB793610522A7" 3
	.cv_inline_site_id 134 within 133 inlined_at 39 253 0
	.cv_loc	134 40 131 0
	mov	rax, qword ptr [rsp + 56]
	mov	qword ptr [rsp + 40], rax
.Ltmp397:
	.cv_loc	133 39 253 0
	cmp	rax, 0
	jne	.LBB47_2
.LBB47_1:
	.cv_loc	133 39 258 0
	add	rsp, 88
	ret
.LBB47_2:
	.cv_loc	133 39 256 0
	mov	rdx, qword ptr [rsp + 40]
	mov	rcx, qword ptr [rsp + 32]
	mov	r8, qword ptr [rsp + 48]
	mov	rax, qword ptr [rsp + 56]
	mov	qword ptr [rsp + 64], r8
	mov	qword ptr [rsp + 72], rax
.Ltmp398:
	.cv_inline_site_id 135 within 133 inlined_at 39 256 0
	.cv_inline_site_id 136 within 135 inlined_at 39 119 0
	.cv_loc	136 40 144 0
	mov	rax, qword ptr [rsp + 48]
.Ltmp399:
	.cv_file	41 "/rustc/e9e6e2e444c30c23a9c878a88fbc3978c2acad95\\library\\core\\src\\ptr\\alignment.rs" "2F8131285C64C30610E5339FCF203B58788B83885639DC82A756A901560EFA82" 3
	.cv_inline_site_id 137 within 136 inlined_at 40 144 0
	.cv_loc	137 41 97 0
	mov	qword ptr [rsp + 80], rax
	mov	r8, qword ptr [rsp + 80]
.Ltmp400:
	.cv_loc	135 39 119 0
	call	__rust_dealloc
.Ltmp401:
	.cv_loc	133 39 253 0
	jmp	.LBB47_1
.Ltmp402:
.Lfunc_end47:
	.seh_endproc

	.def	_ZN65_$LT$alloc..string..String$u20$as$u20$core..ops..deref..Deref$GT$5deref17h3a5034ad6752bfdfE;
	.scl	3;
	.type	32;
	.endef
	.section	.text,"xr",one_only,_ZN65_$LT$alloc..string..String$u20$as$u20$core..ops..deref..Deref$GT$5deref17h3a5034ad6752bfdfE
	.p2align	4, 0x90
_ZN65_$LT$alloc..string..String$u20$as$u20$core..ops..deref..Deref$GT$5deref17h3a5034ad6752bfdfE:
.Lfunc_begin48:
	.cv_func_id 138
	.cv_loc	138 36 2483 0
.seh_proc _ZN65_$LT$alloc..string..String$u20$as$u20$core..ops..deref..Deref$GT$5deref17h3a5034ad6752bfdfE
	sub	rsp, 56
	.seh_stackalloc 56
	.seh_endprologue
.Ltmp403:
	.cv_inline_site_id 139 within 138 inlined_at 36 2484 0
	.cv_inline_site_id 140 within 139 inlined_at 37 2815 0
	.cv_inline_site_id 141 within 140 inlined_at 37 1332 0
	.cv_loc	141 38 278 0
	mov	rax, qword ptr [rcx + 8]
	mov	qword ptr [rsp + 40], rax
.Ltmp404:
	.cv_loc	139 37 2815 0
	mov	rax, qword ptr [rcx + 16]
	mov	qword ptr [rsp + 48], rax
	.cv_loc	140 3 75 0
	mov	r9, qword ptr [rsp + 48]
	mov	rcx, qword ptr [rsp + 40]
.Ltmp405:
	mov	r8d, 1
	mov	rdx, r8
	call	_ZN4core5slice3raw14from_raw_parts18precondition_check17he0275c4e31485463E
.Ltmp406:
	.cv_loc	138 36 2485 0
	mov	rdx, qword ptr [rsp + 48]
	mov	rax, qword ptr [rsp + 40]
	add	rsp, 56
	ret
.Ltmp407:
.Lfunc_end48:
	.seh_endproc

	.def	_ZN70_$LT$alloc..vec..Vec$LT$T$C$A$GT$$u20$as$u20$core..ops..drop..Drop$GT$4drop17hf7d0c05ff9b094eeE;
	.scl	3;
	.type	32;
	.endef
	.section	.text,"xr",one_only,_ZN70_$LT$alloc..vec..Vec$LT$T$C$A$GT$$u20$as$u20$core..ops..drop..Drop$GT$4drop17hf7d0c05ff9b094eeE
	.p2align	4, 0x90
_ZN70_$LT$alloc..vec..Vec$LT$T$C$A$GT$$u20$as$u20$core..ops..drop..Drop$GT$4drop17hf7d0c05ff9b094eeE:
.Lfunc_begin49:
	.cv_func_id 142
	.cv_loc	142 37 3284 0
	ret
.Ltmp408:
.Lfunc_end49:

	.def	_ZN72_$LT$alloc..boxed..Box$LT$T$C$A$GT$$u20$as$u20$core..ops..drop..Drop$GT$4drop17he000bacb830d7a83E;
	.scl	3;
	.type	32;
	.endef
	.section	.text,"xr",one_only,_ZN72_$LT$alloc..boxed..Box$LT$T$C$A$GT$$u20$as$u20$core..ops..drop..Drop$GT$4drop17he000bacb830d7a83E
	.p2align	4, 0x90
_ZN72_$LT$alloc..boxed..Box$LT$T$C$A$GT$$u20$as$u20$core..ops..drop..Drop$GT$4drop17he000bacb830d7a83E:
.Lfunc_begin50:
	.cv_func_id 143
	.cv_file	42 "/rustc/e9e6e2e444c30c23a9c878a88fbc3978c2acad95\\library\\alloc\\src\\boxed.rs" "CDD78F490EB2242AB2CBED5516EB80050DCBD6FE06671C6EA191C0872027F649" 3
	.cv_loc	143 42 1281 0
.seh_proc _ZN72_$LT$alloc..boxed..Box$LT$T$C$A$GT$$u20$as$u20$core..ops..drop..Drop$GT$4drop17he000bacb830d7a83E
	sub	rsp, 88
	.seh_stackalloc 88
	.seh_endprologue
	mov	qword ptr [rsp + 40], rcx
.Ltmp409:
	.cv_loc	143 42 1284 0
	mov	rax, qword ptr [rcx]
	mov	qword ptr [rsp + 48], rax
	mov	rcx, qword ptr [rcx + 8]
.Ltmp410:
	.cv_file	43 "/rustc/e9e6e2e444c30c23a9c878a88fbc3978c2acad95\\library\\core\\src\\mem\\mod.rs" "DB3916ACAE8D5A79617ABC23009CA5ED9E22ABDE6259992689F233F02B17C124" 3
	.cv_inline_site_id 144 within 143 inlined_at 42 1287 0
	.cv_inline_site_id 145 within 144 inlined_at 40 203 0
	.cv_loc	145 43 394 0
	mov	rax, qword ptr [rcx + 8]
	mov	qword ptr [rsp + 72], rax
	mov	rax, qword ptr [rsp + 72]
.Ltmp411:
	.cv_loc	145 43 536 0
	mov	rcx, qword ptr [rcx + 16]
	mov	qword ptr [rsp + 80], rcx
	mov	rcx, qword ptr [rsp + 80]
.Ltmp412:
	.cv_inline_site_id 146 within 144 inlined_at 40 205 0
	.cv_loc	146 40 122 0
	mov	qword ptr [rsp + 64], rax
	mov	qword ptr [rsp + 56], rcx
.Ltmp413:
	.cv_loc	143 42 1288 0
	cmp	rax, 0
	jne	.LBB50_2
.Ltmp414:
.LBB50_1:
	.cv_loc	143 42 1292 0
	add	rsp, 88
	ret
.LBB50_2:
	.cv_loc	143 42 1289 0
	mov	rdx, qword ptr [rsp + 48]
	mov	rcx, qword ptr [rsp + 40]
.Ltmp415:
	add	rcx, 16
	mov	r8, qword ptr [rsp + 56]
	mov	r9, qword ptr [rsp + 64]
	call	_ZN63_$LT$alloc..alloc..Global$u20$as$u20$core..alloc..Allocator$GT$10deallocate17h774ba98abaabd79dE
	.cv_loc	143 42 1288 0
	jmp	.LBB50_1
.Ltmp416:
.Lfunc_end50:
	.seh_endproc

	.def	_ZN72_$LT$alloc..boxed..Box$LT$T$C$A$GT$$u20$as$u20$core..ops..drop..Drop$GT$4drop17hf731b19093fdcfa4E;
	.scl	3;
	.type	32;
	.endef
	.section	.text,"xr",one_only,_ZN72_$LT$alloc..boxed..Box$LT$T$C$A$GT$$u20$as$u20$core..ops..drop..Drop$GT$4drop17hf731b19093fdcfa4E
	.p2align	4, 0x90
_ZN72_$LT$alloc..boxed..Box$LT$T$C$A$GT$$u20$as$u20$core..ops..drop..Drop$GT$4drop17hf731b19093fdcfa4E:
.Lfunc_begin51:
	.cv_func_id 147
	.cv_loc	147 42 1281 0
.seh_proc _ZN72_$LT$alloc..boxed..Box$LT$T$C$A$GT$$u20$as$u20$core..ops..drop..Drop$GT$4drop17hf731b19093fdcfa4E
	sub	rsp, 88
	.seh_stackalloc 88
	.seh_endprologue
	mov	qword ptr [rsp + 40], rcx
.Ltmp417:
	.cv_loc	147 42 1284 0
	mov	rax, qword ptr [rcx]
	mov	qword ptr [rsp + 48], rax
.Ltmp418:
	.cv_inline_site_id 148 within 147 inlined_at 42 1287 0
	.cv_inline_site_id 149 within 148 inlined_at 40 203 0
	.cv_loc	149 43 394 0
	mov	qword ptr [rsp + 72], 24
	mov	rax, qword ptr [rsp + 72]
.Ltmp419:
	.cv_loc	149 43 536 0
	mov	qword ptr [rsp + 80], 8
	mov	rcx, qword ptr [rsp + 80]
.Ltmp420:
	.cv_inline_site_id 150 within 148 inlined_at 40 205 0
	.cv_loc	150 40 122 0
	mov	qword ptr [rsp + 64], rax
	mov	qword ptr [rsp + 56], rcx
.Ltmp421:
	.cv_loc	147 42 1288 0
	cmp	rax, 0
	jne	.LBB51_2
.Ltmp422:
.LBB51_1:
	.cv_loc	147 42 1292 0
	add	rsp, 88
	ret
.LBB51_2:
	.cv_loc	147 42 1289 0
	mov	rdx, qword ptr [rsp + 48]
	mov	rcx, qword ptr [rsp + 40]
.Ltmp423:
	add	rcx, 8
	mov	r8, qword ptr [rsp + 56]
	mov	r9, qword ptr [rsp + 64]
	call	_ZN63_$LT$alloc..alloc..Global$u20$as$u20$core..alloc..Allocator$GT$10deallocate17h774ba98abaabd79dE
	.cv_loc	147 42 1288 0
	jmp	.LBB51_1
.Ltmp424:
.Lfunc_end51:
	.seh_endproc

	.def	_ZN77_$LT$alloc..raw_vec..RawVec$LT$T$C$A$GT$$u20$as$u20$core..ops..drop..Drop$GT$4drop17h2be8b4d1303ce81eE;
	.scl	3;
	.type	32;
	.endef
	.section	.text,"xr",one_only,_ZN77_$LT$alloc..raw_vec..RawVec$LT$T$C$A$GT$$u20$as$u20$core..ops..drop..Drop$GT$4drop17h2be8b4d1303ce81eE
	.p2align	4, 0x90
_ZN77_$LT$alloc..raw_vec..RawVec$LT$T$C$A$GT$$u20$as$u20$core..ops..drop..Drop$GT$4drop17h2be8b4d1303ce81eE:
.Lfunc_begin52:
	.cv_func_id 151
	.cv_loc	151 38 581 0
.seh_proc _ZN77_$LT$alloc..raw_vec..RawVec$LT$T$C$A$GT$$u20$as$u20$core..ops..drop..Drop$GT$4drop17h2be8b4d1303ce81eE
	sub	rsp, 72
	.seh_stackalloc 72
	.seh_endprologue
	mov	rdx, rcx
	mov	qword ptr [rsp + 40], rdx
.Ltmp425:
	.cv_loc	151 38 582 0
	lea	rcx, [rsp + 48]
	call	_ZN5alloc7raw_vec19RawVec$LT$T$C$A$GT$14current_memory17h975dd4603b9d4f7aE
	mov	eax, 1
	xor	ecx, ecx
	cmp	qword ptr [rsp + 56], 0
	cmove	rax, rcx
	cmp	rax, 1
	jne	.LBB52_2
	mov	rcx, qword ptr [rsp + 40]
	mov	rdx, qword ptr [rsp + 48]
	mov	r8, qword ptr [rsp + 56]
	mov	r9, qword ptr [rsp + 64]
	.cv_loc	151 38 583 0
	add	rcx, 16
	call	_ZN63_$LT$alloc..alloc..Global$u20$as$u20$core..alloc..Allocator$GT$10deallocate17h774ba98abaabd79dE
.Ltmp426:
.LBB52_2:
	.cv_loc	151 38 585 0
	nop
	add	rsp, 72
	ret
.Ltmp427:
.Lfunc_end52:
	.seh_endproc

	.def	_ZN78_$LT$std..io..error..repr_bitpacked..Repr$u20$as$u20$core..ops..drop..Drop$GT$4drop17he723dc0296b1bf77E;
	.scl	3;
	.type	32;
	.endef
	.section	.text,"xr",one_only,_ZN78_$LT$std..io..error..repr_bitpacked..Repr$u20$as$u20$core..ops..drop..Drop$GT$4drop17he723dc0296b1bf77E
	.p2align	4, 0x90
_ZN78_$LT$std..io..error..repr_bitpacked..Repr$u20$as$u20$core..ops..drop..Drop$GT$4drop17he723dc0296b1bf77E:
.Lfunc_begin53:
	.cv_func_id 152
	.cv_loc	152 10 236 0
.seh_proc _ZN78_$LT$std..io..error..repr_bitpacked..Repr$u20$as$u20$core..ops..drop..Drop$GT$4drop17he723dc0296b1bf77E
	sub	rsp, 56
	.seh_stackalloc 56
	.seh_endprologue
.Ltmp428:
	.cv_loc	152 10 240 0
	mov	rdx, qword ptr [rcx]
	lea	rcx, [rsp + 40]
	call	_ZN3std2io5error14repr_bitpacked11decode_repr17h2bd03e50a5673b9eE
	lea	rcx, [rsp + 40]
	call	_ZN4core3ptr101drop_in_place$LT$std..io..error..ErrorData$LT$alloc..boxed..Box$LT$std..io..error..Custom$GT$$GT$$GT$17h61a405033bee8629E
	.cv_loc	152 10 242 0
	nop
	add	rsp, 56
	ret
.Ltmp429:
.Lfunc_end53:
	.seh_endproc

	.def	_ZN78_$LT$std..io..error..repr_bitpacked..Repr$u20$as$u20$core..ops..drop..Drop$GT$4drop28_$u7b$$u7b$closure$u7d$$u7d$17hebe88c639d4ba5ddE;
	.scl	3;
	.type	32;
	.endef
	.section	.text,"xr",one_only,_ZN78_$LT$std..io..error..repr_bitpacked..Repr$u20$as$u20$core..ops..drop..Drop$GT$4drop28_$u7b$$u7b$closure$u7d$$u7d$17hebe88c639d4ba5ddE
	.p2align	4, 0x90
_ZN78_$LT$std..io..error..repr_bitpacked..Repr$u20$as$u20$core..ops..drop..Drop$GT$4drop28_$u7b$$u7b$closure$u7d$$u7d$17hebe88c639d4ba5ddE:
.Lfunc_begin54:
	.cv_func_id 153
	.cv_loc	153 10 240 0
.seh_proc _ZN78_$LT$std..io..error..repr_bitpacked..Repr$u20$as$u20$core..ops..drop..Drop$GT$4drop28_$u7b$$u7b$closure$u7d$$u7d$17hebe88c639d4ba5ddE
	sub	rsp, 40
	.seh_stackalloc 40
	.seh_endprologue
	mov	qword ptr [rsp + 32], rcx
.Ltmp430:
	.cv_inline_site_id 154 within 153 inlined_at 10 240 0
	.cv_inline_site_id 155 within 154 inlined_at 42 994 0
	.cv_inline_site_id 156 within 155 inlined_at 42 1050 0
	.cv_file	44 "/rustc/e9e6e2e444c30c23a9c878a88fbc3978c2acad95\\library\\core\\src\\ptr\\unique.rs" "6FFF15F40FAA927E6CB282CA3E4E1744D4893DE58E9CF0851DC72CC0492CB05F" 3
	.cv_inline_site_id 157 within 156 inlined_at 44 89 0
	.cv_loc	157 3 74 0
	jmp	.LBB54_1
.LBB54_1:
	.cv_loc	157 3 75 0
	mov	rcx, qword ptr [rsp + 32]
	call	_ZN4core3ptr8non_null16NonNull$LT$T$GT$13new_unchecked18precondition_check17ha55148275926d55bE
.Ltmp431:
	.cv_loc	153 10 240 0
	mov	rax, qword ptr [rsp + 32]
	add	rsp, 40
	ret
.Ltmp432:
.Lfunc_end54:
	.seh_endproc

	.def	_ZN81_$LT$core..str..iter..Chars$u20$as$u20$core..iter..traits..iterator..Iterator$GT$4next17h67d6734421d177a3E;
	.scl	3;
	.type	32;
	.endef
	.section	.text,"xr",one_only,_ZN81_$LT$core..str..iter..Chars$u20$as$u20$core..iter..traits..iterator..Iterator$GT$4next17h67d6734421d177a3E
	.p2align	4, 0x90
_ZN81_$LT$core..str..iter..Chars$u20$as$u20$core..iter..traits..iterator..Iterator$GT$4next17h67d6734421d177a3E:
.Lfunc_begin55:
	.cv_func_id 158
	.cv_loc	158 1 42 0
.seh_proc _ZN81_$LT$core..str..iter..Chars$u20$as$u20$core..iter..traits..iterator..Iterator$GT$4next17h67d6734421d177a3E
	sub	rsp, 56
	.seh_stackalloc 56
	.seh_endprologue
.Ltmp433:
	.cv_loc	158 1 45 0
	call	_ZN4core3str11validations15next_code_point17h344da708d3279b80E
	mov	dword ptr [rsp + 48], eax
	mov	dword ptr [rsp + 52], edx
.Ltmp434:
	.cv_inline_site_id 159 within 158 inlined_at 1 45 0
	.cv_loc	159 2 1102 0
	mov	eax, dword ptr [rsp + 48]
	cmp	rax, 0
	jne	.LBB55_2
	.cv_loc	159 2 1104 0
	mov	dword ptr [rsp + 44], 1114112
	.cv_loc	159 2 1106 0
	jmp	.LBB55_3
.LBB55_2:
	.cv_loc	159 2 1103 0
	mov	eax, dword ptr [rsp + 52]
	mov	dword ptr [rsp + 40], eax
.Ltmp435:
	.cv_inline_site_id 160 within 159 inlined_at 2 1103 0
	.cv_inline_site_id 161 within 160 inlined_at 1 45 0
	.cv_inline_site_id 162 within 161 inlined_at 4 231 0
	.cv_loc	162 3 74 0
	jmp	.LBB55_4
.Ltmp436:
.LBB55_3:
	.cv_loc	158 1 46 0
	mov	eax, dword ptr [rsp + 44]
	add	rsp, 56
	ret
.LBB55_4:
	.cv_loc	162 3 75 0
	mov	ecx, dword ptr [rsp + 40]
.Ltmp437:
	call	_ZN4core4char7convert18from_u32_unchecked18precondition_check17hbad4979217a856c2E
.Ltmp438:
	.cv_loc	159 2 1103 0
	mov	eax, dword ptr [rsp + 40]
	mov	dword ptr [rsp + 44], eax
.Ltmp439:
	.cv_loc	159 2 1103 0
	jmp	.LBB55_3
.Ltmp440:
.Lfunc_end55:
	.seh_endproc

	.def	_ZN87_$LT$core..str..iter..CharIndices$u20$as$u20$core..iter..traits..iterator..Iterator$GT$4next17h48e012952c6ee572E;
	.scl	3;
	.type	32;
	.endef
	.section	.text,"xr",one_only,_ZN87_$LT$core..str..iter..CharIndices$u20$as$u20$core..iter..traits..iterator..Iterator$GT$4next17h48e012952c6ee572E
	.p2align	4, 0x90
_ZN87_$LT$core..str..iter..CharIndices$u20$as$u20$core..iter..traits..iterator..Iterator$GT$4next17h48e012952c6ee572E:
.Lfunc_begin56:
	.cv_func_id 163
	.cv_loc	163 1 188 0
.seh_proc _ZN87_$LT$core..str..iter..CharIndices$u20$as$u20$core..iter..traits..iterator..Iterator$GT$4next17h48e012952c6ee572E
	sub	rsp, 152
	.seh_stackalloc 152
	.seh_endprologue
	mov	rax, rcx
	mov	qword ptr [rsp + 88], rax
.Ltmp441:
	.cv_inline_site_id 164 within 163 inlined_at 1 189 0
	.cv_loc	164 5 33 0
	mov	rcx, qword ptr [rax + 8]
	mov	qword ptr [rsp + 72], rcx
.Ltmp442:
	.cv_loc	164 5 57 0
	mov	rdx, qword ptr [rax]
	mov	qword ptr [rsp + 80], rdx
.Ltmp443:
	.cv_inline_site_id 165 within 164 inlined_at 5 57 0
	.cv_inline_site_id 166 within 165 inlined_at 6 950 0
	.cv_loc	166 3 75 0
	call	_ZN4core3ptr9const_ptr33_$LT$impl$u20$$BP$const$u20$T$GT$7sub_ptr18precondition_check17h1b9b6d70841970c1E
	mov	rax, qword ptr [rsp + 72]
	mov	rdx, qword ptr [rsp + 80]
	mov	rcx, qword ptr [rsp + 88]
.Ltmp444:
	.cv_loc	166 7 884 0
	sub	rax, rdx
	mov	qword ptr [rsp + 144], rax
.Ltmp445:
	.cv_loc	164 5 143 0
	mov	rax, qword ptr [rsp + 144]
	mov	qword ptr [rsp + 96], rax
.Ltmp446:
	.cv_inline_site_id 167 within 163 inlined_at 1 190 0
	.cv_loc	167 1 45 0
	call	_ZN4core3str11validations15next_code_point17h344da708d3279b80E
	mov	dword ptr [rsp + 128], eax
	mov	dword ptr [rsp + 132], edx
.Ltmp447:
	.cv_inline_site_id 168 within 167 inlined_at 1 45 0
	.cv_loc	168 2 1102 0
	mov	eax, dword ptr [rsp + 128]
	cmp	rax, 0
	jne	.LBB56_2
.Ltmp448:
	.cv_loc	163 1 191 0
	mov	rcx, qword ptr [rip + __unnamed_1]
	mov	eax, dword ptr [rip + __unnamed_1+8]
	mov	qword ptr [rsp + 104], rcx
	mov	dword ptr [rsp + 112], eax
	jmp	.LBB56_3
.LBB56_2:
.Ltmp449:
	.cv_loc	168 2 1103 0
	mov	eax, dword ptr [rsp + 132]
	mov	dword ptr [rsp + 68], eax
.Ltmp450:
	.cv_inline_site_id 169 within 168 inlined_at 2 1103 0
	.cv_inline_site_id 170 within 169 inlined_at 1 45 0
	.cv_inline_site_id 171 within 170 inlined_at 4 231 0
	.cv_loc	171 3 74 0
	jmp	.LBB56_4
.Ltmp451:
.LBB56_3:
	.cv_loc	163 1 199 0
	mov	rax, qword ptr [rsp + 104]
	mov	edx, dword ptr [rsp + 112]
	add	rsp, 152
	ret
.LBB56_4:
	.cv_loc	171 3 75 0
	mov	ecx, dword ptr [rsp + 68]
.Ltmp452:
	call	_ZN4core4char7convert18from_u32_unchecked18precondition_check17hbad4979217a856c2E
.Ltmp453:
	.cv_loc	168 2 1103 0
	mov	rax, qword ptr [rsp + 88]
	mov	ecx, dword ptr [rsp + 68]
	mov	dword ptr [rsp + 124], ecx
.Ltmp454:
	.cv_loc	163 1 192 0
	mov	ecx, dword ptr [rsp + 124]
	mov	dword ptr [rsp + 64], ecx
.Ltmp455:
	.cv_loc	163 1 193 0
	mov	rcx, qword ptr [rax + 16]
	mov	qword ptr [rsp + 56], rcx
.Ltmp456:
	.cv_inline_site_id 172 within 163 inlined_at 1 194 0
	.cv_loc	172 5 33 0
	mov	rcx, qword ptr [rax + 8]
	mov	qword ptr [rsp + 40], rcx
.Ltmp457:
	.cv_loc	172 5 57 0
	mov	rdx, qword ptr [rax]
	mov	qword ptr [rsp + 48], rdx
.Ltmp458:
	.cv_inline_site_id 173 within 172 inlined_at 5 57 0
	.cv_inline_site_id 174 within 173 inlined_at 6 950 0
	.cv_loc	174 3 75 0
	call	_ZN4core3ptr9const_ptr33_$LT$impl$u20$$BP$const$u20$T$GT$7sub_ptr18precondition_check17h1b9b6d70841970c1E
	mov	r9, qword ptr [rsp + 40]
	mov	r10, qword ptr [rsp + 48]
	mov	r8, qword ptr [rsp + 96]
	mov	rdx, qword ptr [rsp + 88]
	mov	rcx, qword ptr [rsp + 56]
	mov	eax, dword ptr [rsp + 64]
.Ltmp459:
	.cv_loc	174 7 884 0
	sub	r9, r10
	mov	qword ptr [rsp + 136], r9
.Ltmp460:
	.cv_loc	163 1 195 0
	sub	r8, qword ptr [rsp + 136]
	add	r8, qword ptr [rdx + 16]
	mov	qword ptr [rdx + 16], r8
	.cv_loc	163 1 196 0
	mov	qword ptr [rsp + 104], rcx
	mov	dword ptr [rsp + 112], eax
.Ltmp461:
	.cv_loc	163 1 197 0
	jmp	.LBB56_3
.Ltmp462:
.Lfunc_end56:
	.seh_endproc

	.def	_ZN91_$LT$core..slice..iter..Iter$LT$T$GT$$u20$as$u20$core..iter..traits..iterator..Iterator$GT$4next17hf27b697d5f0efa6bE;
	.scl	3;
	.type	32;
	.endef
	.section	.text,"xr",one_only,_ZN91_$LT$core..slice..iter..Iter$LT$T$GT$$u20$as$u20$core..iter..traits..iterator..Iterator$GT$4next17hf27b697d5f0efa6bE
	.p2align	4, 0x90
_ZN91_$LT$core..slice..iter..Iter$LT$T$GT$$u20$as$u20$core..iter..traits..iterator..Iterator$GT$4next17hf27b697d5f0efa6bE:
.Lfunc_begin57:
	.cv_func_id 175
	.cv_loc	175 5 156 0
.seh_proc _ZN91_$LT$core..slice..iter..Iter$LT$T$GT$$u20$as$u20$core..iter..traits..iterator..Iterator$GT$4next17hf27b697d5f0efa6bE
	sub	rsp, 40
	.seh_stackalloc 40
	.seh_endprologue
	mov	qword ptr [rsp], rcx
	.cv_loc	175 5 33 0
	mov	rax, qword ptr [rsp]
.Ltmp463:
	mov	rcx, qword ptr [rax + 8]
	mov	qword ptr [rsp + 24], rcx
.Ltmp464:
	.cv_inline_site_id 176 within 175 inlined_at 5 44 0
	.cv_loc	176 6 1796 0
	mov	rax, qword ptr [rax]
	cmp	rax, qword ptr [rsp + 24]
	sete	al
	and	al, 1
	mov	byte ptr [rsp + 23], al
.Ltmp465:
	.cv_loc	175 5 25 0
	test	byte ptr [rsp + 23], 1
	jne	.LBB57_4
.Ltmp466:
	.cv_inline_site_id 177 within 175 inlined_at 5 165 0
	.cv_inline_site_id 178 within 177 inlined_at 5 443 0
	.cv_loc	178 5 100 0
	mov	rax, qword ptr [rsp]
.Ltmp467:
	mov	rax, qword ptr [rax]
	mov	qword ptr [rsp + 32], rax
.Ltmp468:
	.cv_loc	178 5 14 0
	jmp	.LBB57_5
.Ltmp469:
.LBB57_4:
	.cv_loc	175 5 163 0
	mov	qword ptr [rsp + 8], 0
	.cv_loc	175 5 162 0
	jmp	.LBB57_7
.LBB57_5:
	.cv_loc	178 5 108 0
	mov	rax, qword ptr [rsp]
.Ltmp470:
	mov	rcx, qword ptr [rax]
.Ltmp471:
	.cv_inline_site_id 179 within 178 inlined_at 5 108 0
	.cv_loc	179 6 624 0
	add	rcx, 1
.Ltmp472:
	.cv_loc	178 5 108 0
	mov	qword ptr [rax], rcx
.Ltmp473:
	.cv_inline_site_id 180 within 178 inlined_at 6 402 0
	.cv_loc	180 6 351 0
	mov	rax, qword ptr [rsp + 32]
.Ltmp474:
	.cv_loc	175 5 165 0
	mov	qword ptr [rsp + 8], rax
.LBB57_7:
	.cv_loc	175 5 168 0
	mov	rax, qword ptr [rsp + 8]
	add	rsp, 40
	ret
.Ltmp475:
.Lfunc_end57:
	.seh_endproc

	.def	_ZN97_$LT$core..str..pattern..MultiCharEqSearcher$LT$C$GT$$u20$as$u20$core..str..pattern..Searcher$GT$4next17h62949bc54e38fcecE;
	.scl	3;
	.type	32;
	.endef
	.section	.text,"xr",one_only,_ZN97_$LT$core..str..pattern..MultiCharEqSearcher$LT$C$GT$$u20$as$u20$core..str..pattern..Searcher$GT$4next17h62949bc54e38fcecE
	.p2align	4, 0x90
_ZN97_$LT$core..str..pattern..MultiCharEqSearcher$LT$C$GT$$u20$as$u20$core..str..pattern..Searcher$GT$4next17h62949bc54e38fcecE:
.Lfunc_begin58:
	.cv_func_id 181
	.cv_loc	181 8 670 0
.seh_proc _ZN97_$LT$core..str..pattern..MultiCharEqSearcher$LT$C$GT$$u20$as$u20$core..str..pattern..Searcher$GT$4next17h62949bc54e38fcecE
	sub	rsp, 152
	.seh_stackalloc 152
	.seh_endprologue
	mov	qword ptr [rsp + 104], rdx
	mov	qword ptr [rsp + 72], rcx
	mov	qword ptr [rsp + 80], rcx
.Ltmp476:
	.cv_inline_site_id 182 within 181 inlined_at 8 674 0
	.cv_loc	182 5 33 0
	mov	rcx, qword ptr [rdx + 24]
	mov	qword ptr [rsp + 88], rcx
.Ltmp477:
	.cv_loc	182 5 57 0
	mov	rdx, qword ptr [rdx + 16]
	mov	qword ptr [rsp + 96], rdx
.Ltmp478:
	.cv_inline_site_id 183 within 182 inlined_at 5 57 0
	.cv_inline_site_id 184 within 183 inlined_at 6 950 0
	.cv_loc	184 3 75 0
	call	_ZN4core3ptr9const_ptr33_$LT$impl$u20$$BP$const$u20$T$GT$7sub_ptr18precondition_check17h1b9b6d70841970c1E
	mov	rax, qword ptr [rsp + 88]
	mov	rdx, qword ptr [rsp + 96]
	mov	rcx, qword ptr [rsp + 104]
.Ltmp479:
	.cv_loc	184 7 884 0
	sub	rax, rdx
	mov	qword ptr [rsp + 144], rax
.Ltmp480:
	.cv_loc	182 5 143 0
	mov	rax, qword ptr [rsp + 144]
	mov	qword ptr [rsp + 112], rax
.Ltmp481:
	.cv_loc	181 8 675 0
	add	rcx, 16
	call	_ZN87_$LT$core..str..iter..CharIndices$u20$as$u20$core..iter..traits..iterator..Iterator$GT$4next17h48e012952c6ee572E
	mov	qword ptr [rsp + 120], rax
	mov	dword ptr [rsp + 128], edx
	mov	eax, 1
	xor	ecx, ecx
	cmp	dword ptr [rsp + 128], 1114112
	cmove	rax, rcx
	cmp	rax, 1
	jne	.LBB58_2
	mov	rax, qword ptr [rsp + 104]
	mov	rcx, qword ptr [rsp + 120]
	mov	qword ptr [rsp + 32], rcx
	mov	ecx, dword ptr [rsp + 128]
	mov	dword ptr [rsp + 60], ecx
.Ltmp482:
	.cv_inline_site_id 185 within 181 inlined_at 8 676 0
	.cv_loc	185 5 33 0
	mov	rcx, qword ptr [rax + 24]
	mov	qword ptr [rsp + 40], rcx
.Ltmp483:
	.cv_loc	185 5 57 0
	mov	rdx, qword ptr [rax + 16]
	mov	qword ptr [rsp + 48], rdx
.Ltmp484:
	.cv_inline_site_id 186 within 185 inlined_at 5 57 0
	.cv_inline_site_id 187 within 186 inlined_at 6 950 0
	.cv_loc	187 3 75 0
	call	_ZN4core3ptr9const_ptr33_$LT$impl$u20$$BP$const$u20$T$GT$7sub_ptr18precondition_check17h1b9b6d70841970c1E
	mov	r8, qword ptr [rsp + 40]
	mov	r9, qword ptr [rsp + 48]
	mov	rax, qword ptr [rsp + 112]
	mov	rcx, qword ptr [rsp + 104]
	mov	edx, dword ptr [rsp + 60]
.Ltmp485:
	.cv_loc	187 7 884 0
	sub	r8, r9
	mov	qword ptr [rsp + 136], r8
.Ltmp486:
	.cv_loc	181 8 677 0
	sub	rax, qword ptr [rsp + 136]
	mov	qword ptr [rsp + 64], rax
.Ltmp487:
	.cv_loc	181 8 678 0
	add	rcx, 40
	call	_ZN53_$LT$F$u20$as$u20$core..str..pattern..MultiCharEq$GT$7matches17h271ac01a27f0d12dE
	test	al, 1
	jne	.LBB58_4
	jmp	.LBB58_3
.Ltmp488:
.LBB58_2:
	.cv_loc	181 8 684 0
	mov	rax, qword ptr [rsp + 72]
	mov	qword ptr [rax], 2
.Ltmp489:
	.cv_loc	181 8 685 0
	jmp	.LBB58_6
.LBB58_3:
	.cv_loc	181 8 681 0
	mov	rax, qword ptr [rsp + 72]
	mov	rdx, qword ptr [rsp + 32]
	mov	r8, qword ptr [rsp + 64]
.Ltmp490:
	mov	rcx, rdx
	add	rcx, r8
	mov	qword ptr [rax + 8], rdx
	mov	qword ptr [rax + 16], rcx
	mov	qword ptr [rax], 1
	jmp	.LBB58_5
.LBB58_4:
	.cv_loc	181 8 679 0
	mov	rax, qword ptr [rsp + 72]
	mov	rdx, qword ptr [rsp + 32]
	mov	r8, qword ptr [rsp + 64]
	mov	rcx, rdx
	add	rcx, r8
	mov	qword ptr [rax + 8], rdx
	mov	qword ptr [rax + 16], rcx
	mov	qword ptr [rax], 0
.Ltmp491:
.LBB58_5:
	.cv_loc	181 8 685 0
	jmp	.LBB58_6
.LBB58_6:
	mov	rax, qword ptr [rsp + 80]
	add	rsp, 152
	ret
.Ltmp492:
.Lfunc_end58:
	.seh_endproc

	.def	_ZN99_$LT$core..str..pattern..CharPredicateSearcher$LT$F$GT$$u20$as$u20$core..str..pattern..Searcher$GT$11next_reject17h7d595163d7d67840E;
	.scl	3;
	.type	32;
	.endef
	.section	.text,"xr",one_only,_ZN99_$LT$core..str..pattern..CharPredicateSearcher$LT$F$GT$$u20$as$u20$core..str..pattern..Searcher$GT$11next_reject17h7d595163d7d67840E
	.p2align	4, 0x90
_ZN99_$LT$core..str..pattern..CharPredicateSearcher$LT$F$GT$$u20$as$u20$core..str..pattern..Searcher$GT$11next_reject17h7d595163d7d67840E:
.Lfunc_begin59:
	.cv_func_id 188
	.cv_loc	188 8 769 0
.seh_proc _ZN99_$LT$core..str..pattern..CharPredicateSearcher$LT$F$GT$$u20$as$u20$core..str..pattern..Searcher$GT$11next_reject17h7d595163d7d67840E
	sub	rsp, 88
	.seh_stackalloc 88
	.seh_endprologue
	mov	qword ptr [rsp + 40], rdx
	mov	qword ptr [rsp + 48], rcx
	mov	qword ptr [rsp + 56], rcx
.LBB59_1:
	.cv_inline_site_id 189 within 188 inlined_at 8 770 0
	.cv_loc	189 8 251 0
	mov	rdx, qword ptr [rsp + 40]
	lea	rcx, [rsp + 64]
.Ltmp493:
	call	_ZN97_$LT$core..str..pattern..MultiCharEqSearcher$LT$C$GT$$u20$as$u20$core..str..pattern..Searcher$GT$4next17h62949bc54e38fcecE
	mov	rax, qword ptr [rsp + 64]
	mov	qword ptr [rsp + 32], rax
	test	rax, rax
	je	.LBB59_5
	jmp	.LBB59_7
.LBB59_7:
	mov	rax, qword ptr [rsp + 32]
	sub	rax, 1
	je	.LBB59_3
	jmp	.LBB59_8
.LBB59_8:
	jmp	.LBB59_4
	.cv_loc	189 8 249 0
	ud2
.LBB59_3:
	.cv_loc	189 8 252 0
	mov	rax, qword ptr [rsp + 48]
	mov	rdx, qword ptr [rsp + 72]
	mov	rcx, qword ptr [rsp + 80]
.Ltmp494:
	.cv_loc	189 8 252 0
	mov	qword ptr [rax + 8], rdx
	mov	qword ptr [rax + 16], rcx
	mov	qword ptr [rax], 1
.Ltmp495:
	.cv_loc	189 9 1 0
	jmp	.LBB59_6
.LBB59_4:
	.cv_loc	189 8 253 0
	mov	rax, qword ptr [rsp + 48]
	mov	qword ptr [rax], 0
	jmp	.LBB59_6
.LBB59_5:
	.cv_loc	189 9 1 0
	jmp	.LBB59_1
.Ltmp496:
.LBB59_6:
	.cv_loc	188 8 771 0
	mov	rax, qword ptr [rsp + 56]
	add	rsp, 88
	ret
.Ltmp497:
.Lfunc_end59:
	.seh_endproc

	.def	_ZN10switcheroo6Option9from_char17h92bff7dec4f7d9fcE;
	.scl	3;
	.type	32;
	.endef
	.section	.text,"xr",one_only,_ZN10switcheroo6Option9from_char17h92bff7dec4f7d9fcE
	.p2align	4, 0x90
_ZN10switcheroo6Option9from_char17h92bff7dec4f7d9fcE:
.Lfunc_begin60:
	.cv_func_id 190
	.cv_loc	190 9 13 0
.seh_proc _ZN10switcheroo6Option9from_char17h92bff7dec4f7d9fcE
	sub	rsp, 16
	.seh_stackalloc 16
	.seh_endprologue
	mov	eax, ecx
.Ltmp498:
	.cv_loc	190 9 14 0
	add	eax, -99
	mov	ecx, eax
	mov	qword ptr [rsp], rcx
	sub	eax, 14
	ja	.LBB60_1
	mov	rax, qword ptr [rsp]
	lea	rcx, [rip + .LJTI60_0]
	movsxd	rax, dword ptr [rcx + 4*rax]
	add	rax, rcx
.Ltmp499:
	jmp	rax
.LBB60_1:
	.cv_loc	190 9 20 0
	mov	byte ptr [rsp + 15], 1
	jmp	.LBB60_7
.LBB60_2:
	.cv_loc	190 9 15 0
	mov	byte ptr [rsp + 15], 0
	jmp	.LBB60_7
.LBB60_3:
	.cv_loc	190 9 16 0
	mov	byte ptr [rsp + 15], 1
	jmp	.LBB60_7
.LBB60_4:
	.cv_loc	190 9 17 0
	mov	byte ptr [rsp + 15], 2
	jmp	.LBB60_7
.LBB60_5:
	.cv_loc	190 9 18 0
	mov	byte ptr [rsp + 15], 3
	jmp	.LBB60_7
.LBB60_6:
	.cv_loc	190 9 19 0
	mov	byte ptr [rsp + 15], 4
.LBB60_7:
	.cv_loc	190 9 22 0
	mov	al, byte ptr [rsp + 15]
	add	rsp, 16
	ret
.Ltmp500:
.Lfunc_end60:
	.section	.rdata,"dr",associative,_ZN10switcheroo6Option9from_char17h92bff7dec4f7d9fcE
	.p2align	2, 0x0
.LJTI60_0:
	.long	.LBB60_3-.LJTI60_0
	.long	.LBB60_6-.LJTI60_0
	.long	.LBB60_5-.LJTI60_0
	.long	.LBB60_1-.LJTI60_0
	.long	.LBB60_1-.LJTI60_0
	.long	.LBB60_1-.LJTI60_0
	.long	.LBB60_1-.LJTI60_0
	.long	.LBB60_1-.LJTI60_0
	.long	.LBB60_1-.LJTI60_0
	.long	.LBB60_1-.LJTI60_0
	.long	.LBB60_1-.LJTI60_0
	.long	.LBB60_4-.LJTI60_0
	.long	.LBB60_1-.LJTI60_0
	.long	.LBB60_1-.LJTI60_0
	.long	.LBB60_2-.LJTI60_0
	.section	.text,"xr",one_only,_ZN10switcheroo6Option9from_char17h92bff7dec4f7d9fcE
	.seh_endproc

	.def	_ZN10switcheroo10handle_new17h6e6845abf4d2bba8E;
	.scl	3;
	.type	32;
	.endef
	.section	.text,"xr",one_only,_ZN10switcheroo10handle_new17h6e6845abf4d2bba8E
	.p2align	4, 0x90
_ZN10switcheroo10handle_new17h6e6845abf4d2bba8E:
.Lfunc_begin61:
	.cv_func_id 191
	.cv_loc	191 9 25 0
.seh_proc _ZN10switcheroo10handle_new17h6e6845abf4d2bba8E
	sub	rsp, 88
	.seh_stackalloc 88
	.seh_endprologue
.Ltmp501:
	.cv_loc	191 9 26 0
	lea	rcx, [rsp + 40]
	lea	rdx, [rip + __unnamed_20]
	call	_ZN4core3fmt9Arguments9new_const17h57cfde8ab8f7b9efE
	lea	rcx, [rsp + 40]
	call	_ZN3std2io5stdio6_print17h5e64d8a80dec601dE
	.cv_loc	191 9 27 0
	nop
	add	rsp, 88
	ret
.Ltmp502:
.Lfunc_end61:
	.seh_endproc

	.def	_ZN10switcheroo4main17hd339647cdd42e0c2E;
	.scl	3;
	.type	32;
	.endef
	.section	.text,"xr",one_only,_ZN10switcheroo4main17hd339647cdd42e0c2E
	.p2align	4, 0x90
_ZN10switcheroo4main17hd339647cdd42e0c2E:
.Lfunc_begin62:
	.cv_func_id 192
	.cv_loc	192 9 29 0
.seh_proc _ZN10switcheroo4main17hd339647cdd42e0c2E
	.seh_handler __CxxFrameHandler3, @unwind, @except
	push	rbp
	.seh_pushreg rbp
	sub	rsp, 288
	.seh_stackalloc 288
	lea	rbp, [rsp + 128]
	.seh_setframe rbp, 128
	.seh_endprologue
.Ltmp523:
	.cv_loc	192 9 30 0
	mov	qword ptr [rbp + 152], -2
	mov	byte ptr [rbp - 1], 1
.LBB62_1:
.Ltmp524:
	.cv_loc	192 9 32 0
	lea	rcx, [rbp - 1]
	lea	rdx, [rip + __unnamed_21]
	call	_ZN4core3cmp9PartialEq2ne17h5369a56a34517485E
	test	al, 1
	jne	.LBB62_3
.Ltmp525:
	.cv_loc	192 9 49 0
	add	rsp, 288
	pop	rbp
	ret
.LBB62_3:
.Ltmp526:
	.cv_loc	192 9 33 0
	mov	rcx, rbp
	lea	rdx, [rip + __unnamed_22]
	call	_ZN4core3fmt9Arguments9new_const17h57cfde8ab8f7b9efE
	mov	rcx, rbp
	call	_ZN3std2io5stdio6_print17h5e64d8a80dec601dE
	.cv_loc	192 9 34 0
	call	_ZN3std2io5stdio6stdout17h83db61d2894ff74aE
	mov	qword ptr [rbp + 48], rax
	lea	rcx, [rbp + 48]
	call	_ZN57_$LT$std..io..stdio..Stdout$u20$as$u20$std..io..Write$GT$5flush17h55993c546733eba4E
	mov	qword ptr [rbp + 136], rax
.Ltmp527:
	.cv_inline_site_id 193 within 192 inlined_at 9 34 0
	.cv_loc	193 31 1100 0
	mov	rax, qword ptr [rbp + 136]
	cmp	rax, 0
	je	.LBB62_7
	.cv_loc	193 31 1102 0
	mov	rax, qword ptr [rbp + 136]
	mov	qword ptr [rbp + 144], rax
	.cv_loc	193 31 1102 0
.Ltmp503:
.Ltmp528:
	lea	rcx, [rip + __unnamed_23]
	mov	rax, rsp
	mov	qword ptr [rax + 32], rcx
	lea	rcx, [rip + __unnamed_24]
	lea	r9, [rip + __unnamed_25]
	mov	edx, 43
	lea	r8, [rbp + 144]
	call	_ZN4core6result13unwrap_failed17h06d638febd0b9fceE
.Ltmp504:
	jmp	.LBB62_6
.Ltmp529:
.LBB62_6:
	ud2
.LBB62_7:
	.cv_loc	192 9 36 0
	lea	rcx, [rbp + 56]
	call	_ZN5alloc6string6String3new17hada5df6aa4646845E
	.cv_loc	192 9 37 0
.Ltmp505:
.Ltmp530:
	call	_ZN3std2io5stdio5stdin17hc85ef1566d2b0b8aE
.Ltmp506:
	mov	qword ptr [rbp - 16], rax
	jmp	.LBB62_9
.LBB62_9:
	mov	rax, qword ptr [rbp - 16]
	mov	qword ptr [rbp + 80], rax
.Ltmp507:
	lea	rcx, [rbp + 80]
	lea	rdx, [rbp + 56]
	call	_ZN3std2io5stdio5Stdin9read_line17ha3a6a376dbd81ca5E
.Ltmp508:
	mov	qword ptr [rbp - 32], rdx
	mov	qword ptr [rbp - 24], rax
	jmp	.LBB62_10
.LBB62_10:
	.cv_inline_site_id 194 within 192 inlined_at 9 37 0
	.cv_loc	194 31 1100 0
	mov	rax, qword ptr [rbp - 32]
	mov	rcx, qword ptr [rbp - 24]
	mov	qword ptr [rbp + 112], rcx
	mov	qword ptr [rbp + 120], rax
.Ltmp531:
	cmp	qword ptr [rbp + 112], 0
	je	.LBB62_14
	.cv_loc	194 31 1102 0
	mov	rax, qword ptr [rbp + 120]
	mov	qword ptr [rbp + 128], rax
	.cv_loc	194 31 1102 0
.Ltmp509:
.Ltmp532:
	lea	rcx, [rip + __unnamed_26]
	mov	rax, rsp
	mov	qword ptr [rax + 32], rcx
	lea	rcx, [rip + __unnamed_24]
	lea	r9, [rip + __unnamed_25]
	mov	edx, 43
	lea	r8, [rbp + 128]
	call	_ZN4core6result13unwrap_failed17h06d638febd0b9fceE
.Ltmp510:
	jmp	.LBB62_13
.Ltmp533:
.LBB62_13:
	ud2
.LBB62_14:
	.cv_loc	192 9 39 0
.Ltmp511:
	lea	rcx, [rbp + 56]
.Ltmp534:
	call	_ZN65_$LT$alloc..string..String$u20$as$u20$core..ops..deref..Deref$GT$5deref17h3a5034ad6752bfdfE
.Ltmp512:
	mov	qword ptr [rbp - 48], rdx
	mov	qword ptr [rbp - 40], rax
	jmp	.LBB62_15
.LBB62_15:
.Ltmp513:
	mov	rdx, qword ptr [rbp - 48]
	mov	rcx, qword ptr [rbp - 40]
	call	_ZN4core3str21_$LT$impl$u20$str$GT$4trim17h387798244de27668E
.Ltmp514:
	mov	qword ptr [rbp - 64], rdx
	mov	qword ptr [rbp - 56], rax
	jmp	.LBB62_16
.LBB62_16:
.Ltmp515:
	mov	rdx, qword ptr [rbp - 64]
	mov	rcx, qword ptr [rbp - 56]
	call	_ZN4core3str21_$LT$impl$u20$str$GT$5chars17h3fa49c4a3af82549E
.Ltmp516:
	mov	qword ptr [rbp - 80], rdx
	mov	qword ptr [rbp - 72], rax
	jmp	.LBB62_17
.LBB62_17:
	mov	rax, qword ptr [rbp - 80]
	mov	rcx, qword ptr [rbp - 72]
	mov	qword ptr [rbp + 96], rcx
	mov	qword ptr [rbp + 104], rax
.Ltmp517:
	lea	rcx, [rbp + 96]
	call	_ZN81_$LT$core..str..iter..Chars$u20$as$u20$core..iter..traits..iterator..Iterator$GT$4next17h67d6734421d177a3E
.Ltmp518:
	mov	dword ptr [rbp - 84], eax
	jmp	.LBB62_18
.LBB62_18:
	mov	eax, dword ptr [rbp - 84]
	mov	dword ptr [rbp + 92], eax
	mov	eax, 1
	xor	ecx, ecx
	cmp	dword ptr [rbp + 92], 1114112
	cmove	rax, rcx
	cmp	rax, 1
	jne	.LBB62_20
	mov	ecx, dword ptr [rbp + 92]
	.cv_loc	192 9 40 0
.Ltmp519:
	call	_ZN10switcheroo6Option9from_char17h92bff7dec4f7d9fcE
.Ltmp520:
	mov	byte ptr [rbp - 85], al
	jmp	.LBB62_21
.Ltmp535:
.LBB62_20:
	.cv_loc	192 9 48 0
	lea	rcx, [rbp + 56]
	call	_ZN4core3ptr42drop_in_place$LT$alloc..string..String$GT$17hdff560eefda1a1a6E
	jmp	.LBB62_1
.LBB62_21:
	.cv_loc	192 9 40 0
	mov	al, byte ptr [rbp - 85]
.Ltmp536:
	mov	byte ptr [rbp - 1], al
	.cv_loc	192 9 42 0
	movzx	eax, byte ptr [rbp - 1]
	cmp	rax, 2
	jne	.LBB62_20
	.cv_loc	192 9 43 0
.Ltmp521:
	call	_ZN10switcheroo10handle_new17h6e6845abf4d2bba8E
.Ltmp522:
	jmp	.LBB62_23
.LBB62_23:
	jmp	.LBB62_20
.Ltmp537:
	.seh_handlerdata
	.long	($cppxdata$_ZN10switcheroo4main17hd339647cdd42e0c2E)@IMGREL
	.section	.text,"xr",one_only,_ZN10switcheroo4main17hd339647cdd42e0c2E
	.seh_endproc
	.def	"?dtor$5@?0?_ZN10switcheroo4main17hd339647cdd42e0c2E@4HA";
	.scl	3;
	.type	32;
	.endef
	.p2align	4, 0x90
"?dtor$5@?0?_ZN10switcheroo4main17hd339647cdd42e0c2E@4HA":
.seh_proc "?dtor$5@?0?_ZN10switcheroo4main17hd339647cdd42e0c2E@4HA"
.LBB62_5:
	mov	qword ptr [rsp + 16], rdx
	push	rbp
	.seh_pushreg rbp
	sub	rsp, 48
	.seh_stackalloc 48
	lea	rbp, [rdx + 128]
	.seh_endprologue
	lea	rcx, [rbp + 144]
.Ltmp538:
	.cv_loc	193 31 1102 0
	call	_ZN4core3ptr42drop_in_place$LT$std..io..error..Error$GT$17h9789a53d6ad8d0a8E
	.cv_loc	193 31 1096 0
	nop
	add	rsp, 48
	pop	rbp
	ret
.Ltmp539:
	.seh_handlerdata
	.section	.text,"xr",one_only,_ZN10switcheroo4main17hd339647cdd42e0c2E
	.seh_endproc
	.def	"?dtor$8@?0?_ZN10switcheroo4main17hd339647cdd42e0c2E@4HA";
	.scl	3;
	.type	32;
	.endef
	.p2align	4, 0x90
"?dtor$8@?0?_ZN10switcheroo4main17hd339647cdd42e0c2E@4HA":
.seh_proc "?dtor$8@?0?_ZN10switcheroo4main17hd339647cdd42e0c2E@4HA"
.LBB62_8:
	mov	qword ptr [rsp + 16], rdx
	push	rbp
	.seh_pushreg rbp
	sub	rsp, 48
	.seh_stackalloc 48
	lea	rbp, [rdx + 128]
	.seh_endprologue
	lea	rcx, [rbp + 56]
	.cv_loc	192 9 48 0
	call	_ZN4core3ptr42drop_in_place$LT$alloc..string..String$GT$17hdff560eefda1a1a6E
.Ltmp540:
	.cv_loc	192 9 29 0
	nop
	add	rsp, 48
	pop	rbp
	ret
	.seh_handlerdata
	.section	.text,"xr",one_only,_ZN10switcheroo4main17hd339647cdd42e0c2E
	.seh_endproc
	.def	"?dtor$12@?0?_ZN10switcheroo4main17hd339647cdd42e0c2E@4HA";
	.scl	3;
	.type	32;
	.endef
	.p2align	4, 0x90
"?dtor$12@?0?_ZN10switcheroo4main17hd339647cdd42e0c2E@4HA":
.seh_proc "?dtor$12@?0?_ZN10switcheroo4main17hd339647cdd42e0c2E@4HA"
.LBB62_12:
	mov	qword ptr [rsp + 16], rdx
	push	rbp
	.seh_pushreg rbp
	sub	rsp, 48
	.seh_stackalloc 48
	lea	rbp, [rdx + 128]
	.seh_endprologue
	lea	rcx, [rbp + 128]
.Ltmp541:
	.cv_loc	194 31 1102 0
	call	_ZN4core3ptr42drop_in_place$LT$std..io..error..Error$GT$17h9789a53d6ad8d0a8E
	nop
	add	rsp, 48
	pop	rbp
	ret
.Ltmp542:
.Lfunc_end62:
	.seh_handlerdata
	.section	.text,"xr",one_only,_ZN10switcheroo4main17hd339647cdd42e0c2E
	.seh_endproc
	.section	.xdata,"dr",associative,_ZN10switcheroo4main17hd339647cdd42e0c2E
	.p2align	2, 0x0
$cppxdata$_ZN10switcheroo4main17hd339647cdd42e0c2E:
	.long	429065506
	.long	3
	.long	($stateUnwindMap$_ZN10switcheroo4main17hd339647cdd42e0c2E)@IMGREL
	.long	0
	.long	0
	.long	9
	.long	($ip2state$_ZN10switcheroo4main17hd339647cdd42e0c2E)@IMGREL
	.long	280
	.long	0
	.long	1
$stateUnwindMap$_ZN10switcheroo4main17hd339647cdd42e0c2E:
	.long	-1
	.long	"?dtor$5@?0?_ZN10switcheroo4main17hd339647cdd42e0c2E@4HA"@IMGREL
	.long	-1
	.long	"?dtor$8@?0?_ZN10switcheroo4main17hd339647cdd42e0c2E@4HA"@IMGREL
	.long	1
	.long	"?dtor$12@?0?_ZN10switcheroo4main17hd339647cdd42e0c2E@4HA"@IMGREL
$ip2state$_ZN10switcheroo4main17hd339647cdd42e0c2E:
	.long	.Lfunc_begin62@IMGREL
	.long	-1
	.long	.Ltmp503@IMGREL+1
	.long	0
	.long	.Ltmp504@IMGREL+1
	.long	-1
	.long	.Ltmp505@IMGREL+1
	.long	1
	.long	.Ltmp509@IMGREL+1
	.long	2
	.long	.Ltmp511@IMGREL+1
	.long	1
	.long	.Ltmp520@IMGREL+1
	.long	-1
	.long	.Ltmp521@IMGREL+1
	.long	1
	.long	.Ltmp522@IMGREL+1
	.long	-1
	.section	.text,"xr",one_only,_ZN10switcheroo4main17hd339647cdd42e0c2E

	.def	_ZN59_$LT$switcheroo..Option$u20$as$u20$core..cmp..PartialEq$GT$2eq17h4ea35c7f56c94b50E;
	.scl	3;
	.type	32;
	.endef
	.section	.text,"xr",one_only,_ZN59_$LT$switcheroo..Option$u20$as$u20$core..cmp..PartialEq$GT$2eq17h4ea35c7f56c94b50E
	.p2align	4, 0x90
_ZN59_$LT$switcheroo..Option$u20$as$u20$core..cmp..PartialEq$GT$2eq17h4ea35c7f56c94b50E:
.Lfunc_begin63:
	.cv_func_id 195
	.cv_loc	195 9 3 0
	movzx	eax, byte ptr [rcx]
.Ltmp543:
	.cv_loc	195 9 3 0
	movzx	ecx, byte ptr [rdx]
.Ltmp544:
	.cv_loc	195 9 3 0
	cmp	rax, rcx
	sete	al
.Ltmp545:
	.cv_loc	195 9 3 0
	and	al, 1
	movzx	eax, al
	ret
.Ltmp546:
.Lfunc_end63:

	.def	main;
	.scl	2;
	.type	32;
	.endef
	.section	.text,"xr",one_only,main
	.globl	main
	.p2align	4, 0x90
main:
.Lfunc_begin64:
.seh_proc main
	sub	rsp, 40
	.seh_stackalloc 40
	.seh_endprologue
	mov	r8, rdx
	movsxd	rdx, ecx
	lea	rcx, [rip + _ZN10switcheroo4main17hd339647cdd42e0c2E]
	xor	r9d, r9d
	call	_ZN3std2rt10lang_start17h09fc778af1c58fa4E
	nop
	add	rsp, 40
	ret
.Lfunc_end64:
	.seh_endproc

	.section	.rdata,"dr",one_only,__unnamed_27
__unnamed_27:
	.ascii	"assertion failed: 0 < pointee_size && pointee_size <= isize::MAX as usize"

	.section	.rdata,"dr",one_only,__unnamed_28
__unnamed_28:
	.ascii	"/rustc/e9e6e2e444c30c23a9c878a88fbc3978c2acad95\\library\\core\\src\\ptr\\const_ptr.rs"

	.section	.rdata,"dr",one_only,__unnamed_29
	.p2align	3, 0x0
__unnamed_29:
	.quad	__unnamed_28
	.asciz	"Q\000\000\000\000\000\000\000r\003\000\000\t\000\000"

	.section	.rdata,"dr",one_only,__unnamed_1
	.p2align	3, 0x0
__unnamed_1:
	.zero	8
	.asciz	"\000\000\021"
	.zero	4

	.section	.rdata,"dr",one_only,__unnamed_2
__unnamed_2:
	.ascii	"internal error: entered unreachable code"

	.section	.rdata,"dr",one_only,__unnamed_30
__unnamed_30:
	.ascii	"/rustc/e9e6e2e444c30c23a9c878a88fbc3978c2acad95\\library\\std\\src\\io\\error\\repr_bitpacked.rs"

	.section	.rdata,"dr",one_only,__unnamed_3
	.p2align	3, 0x0
__unnamed_3:
	.quad	__unnamed_30
	.asciz	"Z\000\000\000\000\000\000\000\034\001\000\000\r\000\000"

	.section	.rdata,"dr",one_only,__unnamed_4
	.p2align	3, 0x0
__unnamed_4:
	.asciz	"\000\000\000\000\000\000\000\000\b\000\000\000\000\000\000\000\b\000\000\000\000\000\000"
	.quad	_ZN4core3ops8function6FnOnce40call_once$u7b$$u7b$vtable.shim$u7d$$u7d$17h12bec47459f3943cE
	.quad	_ZN3std2rt10lang_start28_$u7b$$u7b$closure$u7d$$u7d$17ha1ef829de41fd0f7E
	.quad	_ZN3std2rt10lang_start28_$u7b$$u7b$closure$u7d$$u7d$17ha1ef829de41fd0f7E

	.section	.rdata,"dr",one_only,__unnamed_5
	.p2align	3, 0x0
__unnamed_5:
	.zero	8
	.zero	8

	.section	.rdata,"dr",one_only,__unnamed_6
__unnamed_6:
	.ascii	"unsafe precondition(s) violated: isize::unchecked_neg cannot overflow"

	.section	.rdata,"dr",one_only,__unnamed_7
__unnamed_7:
	.ascii	"unsafe precondition(s) violated: usize::unchecked_mul cannot overflow"

	.section	.rdata,"dr",one_only,__unnamed_8
__unnamed_8:
	.ascii	"unsafe precondition(s) violated: NonNull::new_unchecked requires that the pointer is non-null"

	.section	.rdata,"dr",one_only,__unnamed_9
__unnamed_9:
	.ascii	"unsafe precondition(s) violated: ptr::sub_ptr requires `self >= origin`"

	.section	.rdata,"dr",one_only,__unnamed_10
	.p2align	2, 0x0
__unnamed_10:
	.zero	4
	.zero	4

	.section	.rdata,"dr",one_only,__unnamed_11
__unnamed_11:
	.ascii	"unsafe precondition(s) violated: str::get_unchecked requires that the range is within the string slice"

	.section	.rdata,"dr",one_only,__unnamed_12
__unnamed_12:
	.ascii	"unsafe precondition(s) violated: invalid value for `char`"

	.section	.rdata,"dr",one_only,__unnamed_13
__unnamed_13:
	.ascii	"unsafe precondition(s) violated: hint::unreachable_unchecked must never be reached"

	.section	.rdata,"dr",one_only,__unnamed_31
__unnamed_31:
	.ascii	"/rustc/e9e6e2e444c30c23a9c878a88fbc3978c2acad95\\library\\core\\src\\ub_checks.rs"

	.section	.rdata,"dr",one_only,__unnamed_17
	.p2align	3, 0x0
__unnamed_17:
	.quad	__unnamed_31
	.asciz	"M\000\000\000\000\000\000\000|\000\000\0006\000\000"

	.section	.rdata,"dr",one_only,__unnamed_16
__unnamed_16:
	.ascii	"unsafe precondition(s) violated: slice::from_raw_parts requires the pointer to be aligned and non-null, and the total size of the slice not to exceed `isize::MAX`"

	.section	.rdata,"dr",one_only,__unnamed_32
__unnamed_32:
	.ascii	"is_aligned_to: align is not a power-of-two"

	.section	.rdata,"dr",one_only,__unnamed_14
	.p2align	3, 0x0
__unnamed_14:
	.quad	__unnamed_32
	.asciz	"*\000\000\000\000\000\000"

	.section	.rdata,"dr",one_only,__unnamed_15
	.p2align	3, 0x0
__unnamed_15:
	.quad	__unnamed_28
	.asciz	"Q\000\000\000\000\000\000\000\214\006\000\000\r\000\000"

	.section	.rdata,"dr",one_only,__unnamed_25
	.p2align	3, 0x0
__unnamed_25:
	.quad	_ZN4core3ptr42drop_in_place$LT$std..io..error..Error$GT$17h9789a53d6ad8d0a8E
	.asciz	"\b\000\000\000\000\000\000\000\b\000\000\000\000\000\000"
	.quad	_ZN58_$LT$std..io..error..Error$u20$as$u20$core..fmt..Debug$GT$3fmt17hcfb63dba216ff853E

	.section	.rdata,"dr",one_only,__unnamed_24
__unnamed_24:
	.ascii	"called `Result::unwrap()` on an `Err` value"

	.section	.rdata,"dr",one_only,__unnamed_33
__unnamed_33:
	.ascii	"/rustc/e9e6e2e444c30c23a9c878a88fbc3978c2acad95\\library\\core\\src\\unicode\\unicode_data.rs"

	.section	.rdata,"dr",one_only,__unnamed_18
	.p2align	3, 0x0
__unnamed_18:
	.quad	__unnamed_33
	.asciz	"X\000\000\000\000\000\000\000@\002\000\000\022\000\000"

	.section	.rdata,"dr",one_only,__unnamed_19
	.p2align	3, 0x0
__unnamed_19:
	.quad	__unnamed_33
	.asciz	"X\000\000\000\000\000\000\000B\002\000\000\023\000\000"

	.section	.rdata,"dr",one_only,__unnamed_34
__unnamed_34:
	.ascii	"You selected new!\n"

	.section	.rdata,"dr",one_only,__unnamed_20
	.p2align	3, 0x0
__unnamed_20:
	.quad	__unnamed_34
	.asciz	"\022\000\000\000\000\000\000"

	.section	.rdata,"dr",one_only,__unnamed_21
__unnamed_21:
	.zero	1

	.section	.rdata,"dr",one_only,__unnamed_35
__unnamed_35:
	.ascii	"Enter option: "

	.section	.rdata,"dr",one_only,__unnamed_22
	.p2align	3, 0x0
__unnamed_22:
	.quad	__unnamed_35
	.asciz	"\016\000\000\000\000\000\000"

	.section	.rdata,"dr",one_only,__unnamed_36
__unnamed_36:
	.ascii	"src/main.rs"

	.section	.rdata,"dr",one_only,__unnamed_23
	.p2align	3, 0x0
__unnamed_23:
	.quad	__unnamed_36
	.asciz	"\013\000\000\000\000\000\000\000\"\000\000\000\036\000\000"

	.section	.rdata,"dr",one_only,__unnamed_26
	.p2align	3, 0x0
__unnamed_26:
	.quad	__unnamed_36
	.asciz	"\013\000\000\000\000\000\000\000%\000\000\000+\000\000"
