	.text
	.def	@feat.00;
	.scl	3;
	.type	0;
	.endef
	.globl	@feat.00
.set @feat.00, 0
	.file	"switcheroo.c"
	.def	handleNew;
	.scl	2;
	.type	32;
	.endef
	.globl	handleNew                       # -- Begin function handleNew
	.p2align	4, 0x90
handleNew:                              # @handleNew
.Lfunc_begin0:
	.cv_func_id 0
	.cv_file	1 "C:\\Users\\kade\\code\\switcheroo\\src\\switcheroo.c" "B0A37189BF5F2D9C25308C0E9DB30F1F" 1
	.cv_loc	0 1 11 0                        # .\src\switcheroo.c:11:0
.seh_proc handleNew
# %bb.0:
	subq	$40, %rsp
	.seh_stackalloc 40
	.seh_endprologue
.Ltmp0:
	.cv_loc	0 1 12 0                        # .\src\switcheroo.c:12:0
	leaq	"??_C@_0BC@GFEHJPND@You?5selected?5new?$CB?$AA@"(%rip), %rcx
	callq	printf
	.cv_loc	0 1 13 0                        # .\src\switcheroo.c:13:0
	nop
	addq	$40, %rsp
	retq
.Ltmp1:
.Lfunc_end0:
	.seh_endproc
                                        # -- End function
	.def	printf;
	.scl	2;
	.type	32;
	.endef
	.section	.text,"xr",discard,printf
	.globl	printf                          # -- Begin function printf
	.p2align	4, 0x90
printf:                                 # @printf
.Lfunc_begin1:
	.cv_func_id 1
	.cv_file	2 "C:\\Program Files (x86)\\Windows Kits\\10\\Include\\10.0.22621.0\\ucrt\\stdio.h" "C1A1FBC43E7D45F0EA4AE539DDCFFB19" 1
	.cv_loc	1 2 956 0                       # C:\Program Files (x86)\Windows Kits\10\Include\10.0.22621.0\ucrt\stdio.h:956:0
.seh_proc printf
# %bb.0:
	#DEBUG_VALUE: printf:_Format <- $rcx
	pushq	%rsi
	.seh_pushreg %rsi
	pushq	%rdi
	.seh_pushreg %rdi
	pushq	%rbx
	.seh_pushreg %rbx
	subq	$48, %rsp
	.seh_stackalloc 48
	.seh_endprologue
	movq	%rcx, %rsi
	movq	%rdx, 88(%rsp)
	movq	%r8, 96(%rsp)
	movq	%r9, 104(%rsp)
.Ltmp2:
	#DEBUG_VALUE: _vfprintf_l:_Format <- $rsi
	leaq	88(%rsp), %rbx
.Ltmp3:
	#DEBUG_VALUE: _vfprintf_l:_ArgList <- $rbx
	.cv_loc	1 2 959 0                       # C:\Program Files (x86)\Windows Kits\10\Include\10.0.22621.0\ucrt\stdio.h:959:0
	movq	%rbx, 40(%rsp)
	.cv_loc	1 2 960 0                       # C:\Program Files (x86)\Windows Kits\10\Include\10.0.22621.0\ucrt\stdio.h:960:0
	movl	$1, %ecx
.Ltmp4:
	#DEBUG_VALUE: printf:_Format <- $rsi
	callq	__acrt_iob_func
	movq	%rax, %rdi
.Ltmp5:
	#DEBUG_VALUE: _vfprintf_l:_Stream <- $rdi
	#DEBUG_VALUE: _vfprintf_l:_Locale <- 0
	.cv_inline_site_id 2 within 1 inlined_at 2 960 0
	.cv_loc	2 2 645 0                       # C:\Program Files (x86)\Windows Kits\10\Include\10.0.22621.0\ucrt\stdio.h:645:0
	callq	__local_stdio_printf_options
	movq	(%rax), %rcx
	movq	%rbx, 32(%rsp)
	movq	%rdi, %rdx
	movq	%rsi, %r8
	xorl	%r9d, %r9d
	callq	__stdio_common_vfprintf
.Ltmp6:
	#DEBUG_VALUE: printf:_Result <- $eax
	.cv_loc	1 2 962 0                       # C:\Program Files (x86)\Windows Kits\10\Include\10.0.22621.0\ucrt\stdio.h:962:0
	nop
	addq	$48, %rsp
	popq	%rbx
.Ltmp7:
	popq	%rdi
.Ltmp8:
	popq	%rsi
.Ltmp9:
	#DEBUG_VALUE: printf:_Format <- [DW_OP_LLVM_entry_value 1] $rcx
	retq
.Ltmp10:
.Lfunc_end1:
	.seh_endproc
                                        # -- End function
	.def	main;
	.scl	2;
	.type	32;
	.endef
	.text
	.globl	main                            # -- Begin function main
	.p2align	4, 0x90
main:                                   # @main
.Lfunc_begin2:
	.cv_func_id 3
# %bb.0:
	nop                                     # avoids zero-length function
.Lfunc_end2:
                                        # -- End function
	.def	__local_stdio_printf_options;
	.scl	2;
	.type	32;
	.endef
	.section	.text,"xr",discard,__local_stdio_printf_options
	.globl	__local_stdio_printf_options    # -- Begin function __local_stdio_printf_options
	.p2align	4, 0x90
__local_stdio_printf_options:           # @__local_stdio_printf_options
.Lfunc_begin3:
	.cv_func_id 4
# %bb.0:
	.cv_file	3 "C:\\Program Files (x86)\\Windows Kits\\10\\Include\\10.0.22621.0\\ucrt\\corecrt_stdio_config.h" "DACF907BDA504AFB0B64F53A242BDAE6" 1
	.cv_loc	4 3 92 0                        # C:\Program Files (x86)\Windows Kits\10\Include\10.0.22621.0\ucrt\corecrt_stdio_config.h:92:0
	leaq	__local_stdio_printf_options._OptionsStorage(%rip), %rax
	retq
.Ltmp11:
.Lfunc_end3:
                                        # -- End function
	.section	.rdata,"dr",discard,"??_C@_0BC@GFEHJPND@You?5selected?5new?$CB?$AA@"
	.globl	"??_C@_0BC@GFEHJPND@You?5selected?5new?$CB?$AA@" # @"??_C@_0BC@GFEHJPND@You?5selected?5new?$CB?$AA@"
"??_C@_0BC@GFEHJPND@You?5selected?5new?$CB?$AA@":
	.asciz	"You selected new!"

	.lcomm	__local_stdio_printf_options._OptionsStorage,8,8 # @__local_stdio_printf_options._OptionsStorage